(iopenshot.classes.project
project
p1
(dp2
S'USER_DIR'
p3
S'/home/jeff/.openshot'
p4
sS'IMAGE_DIR'
p5
S'/usr/share/openshot/openshot/images'
p6
sS'theme_settings'
p7
NsS'THEMES_DIR'
p8
S'/usr/share/openshot/openshot/themes'
p9
sS'TRANSITIONS_DIR'
p10
S'/usr/share/openshot/openshot/transitions'
p11
sS'mlt_profile'
p12
NsS'is_modified'
p13
I01
sS'DESKTOP'
p14
S'/home/jeff/Desktop'
p15
sS'LOCALE_DIR'
p16
S'/usr/share/openshot/openshot/locale'
p17
sS'tabs'
p18
(lp19
(iclasses.sequences
sequence
p20
(dp21
S'enable_animated_playhead'
p22
I00
sS'scale'
p23
I2
sS'name'
p24
S'Default Sequence 1'
p25
sS'play_head'
p26
NsS'play_head_position'
p27
F0
sS'tick_pixels'
p28
I100
sS'tracks'
p29
(lp30
(iclasses.track
track
p31
(dp32
S'clips'
p33
(lp34
(iclasses.clip
clip
p35
(dp36
S'color'
p37
S'Gold'
p38
sS'moved'
p39
I00
sS'video_fade_out'
p40
I00
sS'keyframes'
p41
(dp42
S'start'
p43
(iclasses.keyframe
keyframe
p44
(dp45
S'frame'
p46
I0
sS'height'
p47
F100
sS'width'
p48
F100
sS'x'
F0
sS'y'
F0
sS'alpha'
p49
F1
sS'unique_id'
p50
S'5b5b3d0d-e500-11e6-9631-e8b1fc98bbfb'
p51
sbsS'end'
p52
(iclasses.keyframe
keyframe
p53
(dp54
g46
I-1
sg47
F100
sg48
F100
sS'x'
F0
sS'y'
F0
sg49
F1
sg50
S'5b5b3d0e-e500-11e6-9631-e8b1fc98bbfb'
p55
sbssS'video_fade_out_amount'
p56
F2
sS'audio_fade_out'
p57
I00
sS'reversed'
p58
I00
sS'speed'
p59
F1
sS'fill'
p60
I01
sS'audio_fade_in_amount'
p61
F2
sS'position_on_track'
p62
F0
sS'drag_y'
p63
F43.5
sS'drag_x'
p64
F40.5
sS'play_audio'
p65
I01
sS'original_clip_out'
p66
F3
sS'audio_fade_out_amount'
p67
F2
sS'max_length'
p68
F300
sS'show_preview'
p69
I00
sS'valign'
p70
S'centre'
p71
sS'video_fade_in'
p72
I00
sS'original_length'
p73
F3
sS'audio_fade_in'
p74
I00
sS'request_show_properties'
p75
I00
sS'video_fade_in_amount'
p76
F2
sS'parent'
p77
g31
sS'composite'
p78
I01
sS'start_time'
p79
F0
sS'file_object'
p80
(iclasses.files
OpenShotFile
p81
(dp82
S'max_frames'
p83
F14999
sS'audio_codec'
p84
S''
sS'audio_channels'
p85
I0
sS'thumb_location'
p86
S'/home/jeff/digital_media_class/Proj1_intro_vid/thumbnail/4513f42f-e500-11e6-9631-e8b1fc98bbfb_png_1.png'
p87
sS'name'
p88
S'/home/jeff/digital_media_class/Proj1_intro_vid/art/title.png'
p89
sS'parent'
p90
NsS'file_type'
p91
S'image'
p92
sS'audio_frequency'
p93
I0
sg47
I400
sS'project'
p94
g1
sg48
I640
sS'length'
p95
F300
sS'fps'
p96
F29.970029970029969
sS'ttl'
p97
I1
sS'video_codec'
p98
S''
sS'videorate'
p99
(F29.970029970029969
I0
tp100
sS'label'
p101
S''
sg50
S'4513f430-e500-11e6-9631-e8b1fc98bbfb'
p102
sbsS'distort'
p103
I00
sS'volume'
p104
F100
sS'effects'
p105
(lp106
sS'original_clip_in'
p107
F0
sS'rotation'
p108
F0
sS'is_timeline_scrolling'
p109
I00
sS'thumb_location'
p110
S'/home/jeff/digital_media_class/Proj1_intro_vid/thumbnail/4513f42f-e500-11e6-9631-e8b1fc98bbfb_png_1.png'
p111
sg24
S'title.png'
p112
sS'original_start_pos'
p113
F0
sS'timeline_current_position'
p114
I0
sS'halign'
p115
S'centre'
p116
sS'play_video'
p117
I01
sS'end_time'
p118
F2.1176470588199998
sS'unique_id'
p119
S'5b5b3d0c-e500-11e6-9631-e8b1fc98bbfb'
p120
sba(iclasses.clip
clip
p121
(dp122
g37
g38
sg39
I01
sg40
I00
sg41
(dp123
g43
(iclasses.keyframe
keyframe
p124
(dp125
g46
I0
sg47
F100
sg48
F100
sS'x'
F0
sS'y'
F0
sg49
F1
sg50
S'9a37d7e3-e500-11e6-9631-e8b1fc98bbfb'
p126
sbsg52
(iclasses.keyframe
keyframe
p127
(dp128
g46
I-1
sg47
F100
sg48
F100
sS'x'
F0
sS'y'
F0
sg49
F1
sg50
S'9a37d7e4-e500-11e6-9631-e8b1fc98bbfb'
p129
sbssg56
F2
sg57
I00
sg58
I00
sg59
F1
sg60
I01
sg61
F2
sg62
F2.1176470588199998
sg63
F50.5
sg64
F137.5
sg65
I01
sg67
F2
sg68
F300
sg69
I00
sg70
S'centre'
p130
sg72
I00
sg74
I00
sg75
I00
sg76
F2
sg77
g31
sg78
I01
sg79
F0
sg80
(iclasses.files
OpenShotFile
p131
(dp132
g83
F14999
sg84
S''
sg85
I0
sg86
S'/home/jeff/digital_media_class/Proj1_intro_vid/thumbnail/96b88602-e500-11e6-9631-e8b1fc98bbfb_jpg_1.png'
p133
sg88
S'/home/jeff/digital_media_class/Proj1_intro_vid/pics/me/20170123_224128.jpg'
p134
sg90
Nsg91
g92
sg93
I0
sg47
I1944
sg94
g1
sg48
I2592
sg95
F300
sg96
F29.970029970029969
sg97
I1
sg98
S''
sg99
(F29.970029970029969
I0
tp135
sg101
S''
sg50
S'96b88603-e500-11e6-9631-e8b1fc98bbfb'
p136
sbsg103
I00
sg104
F100
sg105
(lp137
sg108
F0
sg109
I00
sg110
S'/home/jeff/digital_media_class/Proj1_intro_vid/thumbnail/96b88602-e500-11e6-9631-e8b1fc98bbfb_jpg_1.png'
p138
sg24
S'20170123_224128.jpg'
p139
sg115
S'centre'
p140
sg117
I01
sg118
F2.1200000000000001
sg119
S'9a37d7e2-e500-11e6-9631-e8b1fc98bbfb'
p141
sba(iclasses.clip
clip
p142
(dp143
g37
g38
sg39
I01
sg40
I00
sg41
(dp144
g43
(iclasses.keyframe
keyframe
p145
(dp146
g46
I0
sg47
F100
sg48
F100
sS'x'
F0
sS'y'
F0
sg49
F1
sg50
S'9d1d214d-e500-11e6-9631-e8b1fc98bbfb'
p147
sbsg52
(iclasses.keyframe
keyframe
p148
(dp149
g46
I-1
sg47
F100
sg48
F100
sS'x'
F0
sS'y'
F0
sg49
F1
sg50
S'9d1d214e-e500-11e6-9631-e8b1fc98bbfb'
p150
sbssg56
F2
sg57
I00
sg58
I00
sg59
F1
sg60
I01
sg61
F2
sg62
F4.2376470588199995
sg63
F37.5
sg64
F241.5
sg65
I01
sg67
F2
sg68
F300
sg69
I00
sg70
S'centre'
p151
sg72
I00
sg74
I00
sg75
I00
sg76
F2
sg77
g31
sg78
I01
sg79
F0
sg80
(iclasses.files
OpenShotFile
p152
(dp153
g83
F14999
sg84
S''
sg85
I0
sg86
S'/home/jeff/digital_media_class/Proj1_intro_vid/thumbnail/96b88604-e500-11e6-9631-e8b1fc98bbfb_jpg_1.png'
p154
sg88
S'/home/jeff/digital_media_class/Proj1_intro_vid/pics/me/me.jpg'
p155
sg90
Nsg91
g92
sg93
I0
sg47
I185
sg94
g1
sg48
I170
sg95
F300
sg96
F29.970029970029969
sg97
I1
sg98
S''
sg99
(F29.970029970029969
I0
tp156
sg101
S''
sg50
S'96b88605-e500-11e6-9631-e8b1fc98bbfb'
p157
sbsg103
I00
sg104
F100
sg105
(lp158
sg108
F0
sg109
I00
sg110
S'/home/jeff/digital_media_class/Proj1_intro_vid/thumbnail/96b88604-e500-11e6-9631-e8b1fc98bbfb_jpg_1.png'
p159
sg24
S'me.jpg'
p160
sg115
S'centre'
p161
sg117
I01
sg118
F2.1200000000000001
sg119
S'9d1d214c-e500-11e6-9631-e8b1fc98bbfb'
p162
sba(iclasses.clip
clip
p163
(dp164
g37
g38
sg39
I00
sg40
I00
sg41
(dp165
g43
(iclasses.keyframe
keyframe
p166
(dp167
g46
I0
sg47
F100
sg48
F100
sS'x'
F0
sS'y'
F0
sg49
F1
sg50
S'c50910df-e501-11e6-9631-e8b1fc98bbfb'
p168
sbsg52
(iclasses.keyframe
keyframe
p169
(dp170
g46
I-1
sg47
F100
sg48
F100
sS'x'
F0
sS'y'
F0
sg49
F1
sg50
S'c50910e0-e501-11e6-9631-e8b1fc98bbfb'
p171
sbssg56
F2
sg57
I00
sg58
I00
sg59
F1
sg60
I01
sg61
F2
sg62
F6.3576470588199996
sg63
F51.5
sg64
F370.57843137266667
sg65
I01
sg67
F2
sg68
F300
sS'show_preview'
p172
I00
sg70
S'centre'
p173
sg72
I00
sg74
I00
sg75
I00
sg76
F2
sg77
g31
sg78
I01
sg79
F0
sg80
(iclasses.files
OpenShotFile
p174
(dp175
g83
F14999
sg84
S''
sg85
I0
sg86
S'/home/jeff/digital_media_class/Proj1_intro_vid/thumbnail/bb322320-e501-11e6-9631-e8b1fc98bbfb_png_1.png'
p176
sg88
S'/home/jeff/digital_media_class/Proj1_intro_vid/art/family.png'
p177
sg90
Nsg91
g92
sg93
I0
sg47
I400
sg94
g1
sg48
I640
sg95
F300
sg96
F29.970029970029969
sg97
I1
sg98
S''
sg99
(F29.970029970029969
I0
tp178
sg101
S''
sg50
S'bb322321-e501-11e6-9631-e8b1fc98bbfb'
p179
sbsg103
I00
sg104
F100
sg105
(lp180
sg108
F0
sg109
I00
sg110
S'/home/jeff/digital_media_class/Proj1_intro_vid/thumbnail/bb322320-e501-11e6-9631-e8b1fc98bbfb_png_1.png'
p181
sg24
S'family.png'
p182
sg115
S'centre'
p183
sg117
I01
sg118
F2.1200000000000001
sg119
S'c50910de-e501-11e6-9631-e8b1fc98bbfb'
p184
sba(iclasses.clip
clip
p185
(dp186
g37
g38
sg39
I00
sg40
I00
sg41
(dp187
g43
(iclasses.keyframe
keyframe
p188
(dp189
g46
I0
sg47
F100
sg48
F100
sS'x'
F0
sS'y'
F0
sg49
F1
sg50
S'dc8436c7-e501-11e6-9631-e8b1fc98bbfb'
p190
sbsg52
(iclasses.keyframe
keyframe
p191
(dp192
g46
I-1
sg47
F100
sg48
F100
sS'x'
F0
sS'y'
F0
sg49
F1
sg50
S'dc8436c8-e501-11e6-9631-e8b1fc98bbfb'
p193
sbssg56
F2
sg57
I00
sg58
I00
sg59
F1
sg60
I01
sg61
F2
sg62
F8.4776470588200006
sg63
F49.5
sg64
F452.91176470599999
sg65
I01
sg67
F2
sg68
F300
sg172
I00
sg70
S'centre'
p194
sg72
I00
sg74
I00
sg75
I00
sg76
F2
sg77
g31
sg78
I01
sg79
F0
sg80
(iclasses.files
OpenShotFile
p195
(dp196
g83
F14999
sg84
S''
sg85
I0
sg86
S'/home/jeff/digital_media_class/Proj1_intro_vid/thumbnail/d9f14412-e501-11e6-9631-e8b1fc98bbfb_jpg_1.png'
p197
sg88
S'/home/jeff/digital_media_class/Proj1_intro_vid/pics/bbdoll/us.jpg'
p198
sg90
Nsg91
g92
sg93
I0
sg47
I540
sg94
g1
sg48
I960
sg95
F300
sg96
F29.970029970029969
sg97
I1
sg98
S''
sg99
(F29.970029970029969
I0
tp199
sg101
S''
sg50
S'd9f14413-e501-11e6-9631-e8b1fc98bbfb'
p200
sbsg103
I00
sg104
F100
sg105
(lp201
sg108
F0
sg109
I00
sg110
S'/home/jeff/digital_media_class/Proj1_intro_vid/thumbnail/d9f14412-e501-11e6-9631-e8b1fc98bbfb_jpg_1.png'
p202
sg24
S'us.jpg'
p203
sg115
S'centre'
p204
sg117
I01
sg118
F2.1200000000000001
sg119
S'dc8436c6-e501-11e6-9631-e8b1fc98bbfb'
p205
sba(iclasses.clip
clip
p206
(dp207
g37
g38
sg39
I00
sg40
I00
sg41
(dp208
g43
(iclasses.keyframe
keyframe
p209
(dp210
g46
I0
sg47
F100
sg48
F100
sS'x'
F0
sS'y'
F0
sg49
F1
sg50
S'3cafa60d-e502-11e6-9631-e8b1fc98bbfb'
p211
sbsg52
(iclasses.keyframe
keyframe
p212
(dp213
g46
I-1
sg47
F100
sg48
F100
sS'x'
F0
sS'y'
F0
sg49
F1
sg50
S'3cafa60e-e502-11e6-9631-e8b1fc98bbfb'
p214
sbssg56
F2
sg57
I00
sg58
I00
sg59
F1
sg60
I01
sg61
F2
sg62
F10.59764705882
sg63
F48.5
sg64
F843.61764705899998
sg65
I01
sg67
F2
sg68
F300
sg172
I00
sg70
S'centre'
p215
sg72
I00
sg74
I00
sg75
I00
sg76
F2
sg77
g31
sg78
I01
sg79
F0
sg80
(iclasses.files
OpenShotFile
p216
(dp217
g83
F14999
sg84
S''
sg85
I0
sg86
S'/home/jeff/digital_media_class/Proj1_intro_vid/thumbnail/378194ba-e502-11e6-9631-e8b1fc98bbfb_png_1.png'
p218
sg88
S'/home/jeff/digital_media_class/Proj1_intro_vid/art/wife.png'
p219
sg90
Nsg91
g92
sg93
I0
sg47
I400
sg94
g1
sg48
I640
sg95
F300
sg96
F29.970029970029969
sg97
I1
sg98
S''
sg99
(F29.970029970029969
I0
tp220
sg101
S''
sg50
S'378194bb-e502-11e6-9631-e8b1fc98bbfb'
p221
sbsg103
I00
sg104
F100
sg105
(lp222
sg108
F0
sg109
I00
sg110
S'/home/jeff/digital_media_class/Proj1_intro_vid/thumbnail/378194ba-e502-11e6-9631-e8b1fc98bbfb_png_1.png'
p223
sg24
S'wife.png'
p224
sg115
S'centre'
p225
sg117
I01
sg118
F2.1200000000000001
sg119
S'3cafa60c-e502-11e6-9631-e8b1fc98bbfb'
p226
sba(iclasses.clip
clip
p227
(dp228
g37
g38
sg39
I00
sg40
I00
sg41
(dp229
g43
(iclasses.keyframe
keyframe
p230
(dp231
g46
I0
sg47
F100
sg48
F100
sS'x'
F0
sS'y'
F0
sg49
F1
sg50
S'4e512003-e502-11e6-9631-e8b1fc98bbfb'
p232
sbsg52
(iclasses.keyframe
keyframe
p233
(dp234
g46
I-1
sg47
F100
sg48
F100
sS'x'
F0
sS'y'
F0
sg49
F1
sg50
S'4e512004-e502-11e6-9631-e8b1fc98bbfb'
p235
sbssg56
F2
sg57
I00
sg58
I00
sg59
F1
sg60
I01
sg61
F2
sg62
F12.717647058820001
sg63
F53.5
sg64
F984.61764705899998
sg65
I01
sg67
F2
sg68
F300
sg172
I00
sg70
S'centre'
p236
sg72
I00
sg74
I00
sg75
I00
sg76
F2
sg77
g31
sg78
I01
sg79
F0
sg80
(iclasses.files
OpenShotFile
p237
(dp238
g83
F14999
sg84
S''
sg85
I0
sg86
S'/home/jeff/digital_media_class/Proj1_intro_vid/thumbnail/02201c1a-e502-11e6-9631-e8b1fc98bbfb_jpg_1.png'
p239
sg88
S'/home/jeff/digital_media_class/Proj1_intro_vid/pics/bbdoll/bbdoll1.jpg'
p240
sg90
Nsg91
g92
sg93
I0
sg47
I403
sg94
g1
sg48
I593
sg95
F300
sg96
F29.970029970029969
sg97
I1
sg98
S''
sg99
(F29.970029970029969
I0
tp241
sg101
S''
sg50
S'02201c1b-e502-11e6-9631-e8b1fc98bbfb'
p242
sbsg103
I00
sg104
F100
sg105
(lp243
sg108
F0
sg109
I00
sg110
S'/home/jeff/digital_media_class/Proj1_intro_vid/thumbnail/02201c1a-e502-11e6-9631-e8b1fc98bbfb_jpg_1.png'
p244
sg24
S'bbdoll1.jpg'
p245
sg115
S'centre'
p246
sg117
I01
sg118
F2.1200000000000001
sg119
S'4e512002-e502-11e6-9631-e8b1fc98bbfb'
p247
sba(iclasses.clip
clip
p248
(dp249
g37
g38
sg39
I00
sg40
I00
sg41
(dp250
g43
(iclasses.keyframe
keyframe
p251
(dp252
g46
I0
sg47
F100
sg48
F100
sS'x'
F0
sS'y'
F0
sg49
F1
sg50
S'729d22c7-e502-11e6-9631-e8b1fc98bbfb'
p253
sbsg52
(iclasses.keyframe
keyframe
p254
(dp255
g46
I-1
sg47
F100
sg48
F100
sS'x'
F0
sS'y'
F0
sg49
F1
sg50
S'729d22c8-e502-11e6-9631-e8b1fc98bbfb'
p256
sbssg56
F2
sg57
I00
sg58
I00
sg59
F1
sg60
I01
sg61
F2
sg62
F14.83764705882
sg63
F53.5
sg64
F1163.6176470589999
sg65
I01
sg67
F2
sg68
F300
sg69
I00
sg70
S'centre'
p257
sg72
I00
sg74
I00
sg75
I00
sg76
F2
sg77
g31
sg78
I01
sg79
F0
sg80
(iclasses.files
OpenShotFile
p258
(dp259
g83
F14999
sg84
S''
sg85
I0
sg86
S'/home/jeff/digital_media_class/Proj1_intro_vid/thumbnail/fdcb7498-e501-11e6-9631-e8b1fc98bbfb_jpg_1.png'
p260
sg88
S'/home/jeff/digital_media_class/Proj1_intro_vid/pics/bbdoll/bbdoll90.jpg'
p261
sg90
Nsg91
g92
sg93
I0
sg47
I960
sg94
g1
sg48
I960
sg95
F300
sg96
F29.970029970029969
sg97
I1
sg98
S''
sg99
(F29.970029970029969
I0
tp262
sg101
S''
sg50
S'fdcb7499-e501-11e6-9631-e8b1fc98bbfb'
p263
sbsg103
I00
sg104
F100
sg105
(lp264
sg108
F0
sg109
I00
sg110
S'/home/jeff/digital_media_class/Proj1_intro_vid/thumbnail/fdcb7498-e501-11e6-9631-e8b1fc98bbfb_jpg_1.png'
p265
sg24
S'bbdoll90.jpg'
p266
sg115
S'centre'
p267
sg117
I01
sg118
F2.1200000000000001
sg119
S'729d22c6-e502-11e6-9631-e8b1fc98bbfb'
p268
sba(iclasses.clip
clip
p269
(dp270
g37
g38
sg39
I00
sg40
I00
sg41
(dp271
g43
(iclasses.keyframe
keyframe
p272
(dp273
g46
I0
sg47
F100
sg48
F100
sS'x'
F0
sS'y'
F0
sg49
F1
sg50
S'dccd16f7-e502-11e6-9631-e8b1fc98bbfb'
p274
sbsg52
(iclasses.keyframe
keyframe
p275
(dp276
g46
I-1
sg47
F100
sg48
F100
sS'x'
F0
sS'y'
F0
sg49
F1
sg50
S'dccd16f8-e502-11e6-9631-e8b1fc98bbfb'
p277
sbssg56
F2
sg57
I00
sg58
I00
sg59
F1
sg60
I01
sg61
F2
sg62
F16.957647058820001
sg63
F54.5
sg64
F1292.6176470589999
sg65
I01
sg67
F2
sg68
F300
sg69
I00
sg70
S'centre'
p278
sg72
I00
sg74
I00
sg75
I00
sg76
F2
sg77
g31
sg78
I01
sg79
F0
sg80
(iclasses.files
OpenShotFile
p279
(dp280
g83
F14999
sg84
S''
sg85
I0
sg86
S'/home/jeff/digital_media_class/Proj1_intro_vid/thumbnail/d3c97eaa-e502-11e6-9631-e8b1fc98bbfb_jpg_1.png'
p281
sg88
S'/home/jeff/digital_media_class/Proj1_intro_vid/pics/bbdoll/bbdoll_ice.jpg'
p282
sg90
Nsg91
g92
sg93
I0
sg47
I3024
sg94
g1
sg48
I4032
sg95
F300
sg96
F29.970029970029969
sg97
I1
sg98
S''
sg99
(F29.970029970029969
I0
tp283
sg101
S''
sg50
S'd3c97eab-e502-11e6-9631-e8b1fc98bbfb'
p284
sbsg103
I00
sg104
F100
sg105
(lp285
sg108
F0
sg109
I00
sg110
S'/home/jeff/digital_media_class/Proj1_intro_vid/thumbnail/d3c97eaa-e502-11e6-9631-e8b1fc98bbfb_jpg_1.png'
p286
sg24
S'bbdoll_ice.jpg'
p287
sg115
S'centre'
p288
sg117
I01
sg118
F2.1200000000000001
sg119
S'dccd16f6-e502-11e6-9631-e8b1fc98bbfb'
p289
sba(iclasses.clip
clip
p290
(dp291
g37
g38
sg39
I00
sg40
I00
sg41
(dp292
g43
(iclasses.keyframe
keyframe
p293
(dp294
g46
I0
sg47
F100
sg48
F100
sS'x'
F0
sS'y'
F0
sg49
F1
sg50
S'e7a9dd85-e502-11e6-9631-e8b1fc98bbfb'
p295
sbsg52
(iclasses.keyframe
keyframe
p296
(dp297
g46
I-1
sg47
F100
sg48
F100
sS'x'
F0
sS'y'
F0
sg49
F1
sg50
S'e7a9dd86-e502-11e6-9631-e8b1fc98bbfb'
p298
sbssg56
F2
sg57
I00
sg58
I00
sg59
F1
sg60
I01
sg61
F2
sg62
F19.077647058820002
sg63
F53.5
sg64
F1446.6176470589999
sg65
I01
sg67
F2
sg68
F300
sg69
I00
sg70
S'centre'
p299
sg72
I00
sg74
I00
sg75
I00
sg76
F2
sg77
g31
sg78
I01
sg79
F0
sg80
(iclasses.files
OpenShotFile
p300
(dp301
g83
F14999
sg84
S''
sg85
I0
sg86
S'/home/jeff/digital_media_class/Proj1_intro_vid/thumbnail/fdcb749e-e501-11e6-9631-e8b1fc98bbfb_jpg_1.png'
p302
sg88
S'/home/jeff/digital_media_class/Proj1_intro_vid/pics/bbdoll/me-bbd1.jpg'
p303
sg90
Nsg91
g92
sg93
I0
sg47
I480
sg94
g1
sg48
I640
sg95
F300
sg96
F29.970029970029969
sg97
I1
sg98
S''
sg99
(F29.970029970029969
I0
tp304
sg101
S''
sg50
S'fdcb749f-e501-11e6-9631-e8b1fc98bbfb'
p305
sbsg103
I00
sg104
F100
sg105
(lp306
sg108
F0
sg109
I00
sg110
S'/home/jeff/digital_media_class/Proj1_intro_vid/thumbnail/fdcb749e-e501-11e6-9631-e8b1fc98bbfb_jpg_1.png'
p307
sg24
S'me-bbd1.jpg'
p308
sg114
I0
sg115
S'centre'
p309
sg117
I01
sg118
F2.1200000000000001
sg119
S'e7a9dd84-e502-11e6-9631-e8b1fc98bbfb'
p310
sba(iclasses.clip
clip
p311
(dp312
g37
g38
sg39
I00
sg40
I00
sg41
(dp313
g43
(iclasses.keyframe
keyframe
p314
(dp315
g46
I0
sg47
F100
sg48
F100
sS'x'
F0
sS'y'
F0
sg49
F1
sg50
S'f173c493-e502-11e6-9631-e8b1fc98bbfb'
p316
sbsg52
(iclasses.keyframe
keyframe
p317
(dp318
g46
I-1
sg47
F100
sg48
F100
sS'x'
F0
sS'y'
F0
sg49
F1
sg50
S'f173c494-e502-11e6-9631-e8b1fc98bbfb'
p319
sbssg56
F2
sg57
I00
sg58
I00
sg59
F1
sg60
I01
sg61
F2
sg62
F21.197647058820003
sg63
F42.5
sg64
F1583.6176470589999
sg65
I01
sg67
F2
sg68
F300
sg69
I00
sg70
S'centre'
p320
sg72
I00
sg74
I00
sg75
I00
sg76
F2
sg77
g31
sg78
I01
sg79
F0
sg80
(iclasses.files
OpenShotFile
p321
(dp322
g83
F14999
sg84
S''
sg85
I0
sg86
S'/home/jeff/digital_media_class/Proj1_intro_vid/thumbnail/fdcb74a0-e501-11e6-9631-e8b1fc98bbfb_jpg_1.png'
p323
sg88
S'/home/jeff/digital_media_class/Proj1_intro_vid/pics/bbdoll/me-bbd2.jpg'
p324
sg90
Nsg91
g92
sg93
I0
sg47
I387
sg94
g1
sg48
I402
sg95
F300
sg96
F29.970029970029969
sg97
I1
sg98
S''
sg99
(F29.970029970029969
I0
tp325
sg101
S''
sg50
S'fdcb74a1-e501-11e6-9631-e8b1fc98bbfb'
p326
sbsg103
I00
sg104
F100
sg105
(lp327
sg108
F0
sg109
I00
sg110
S'/home/jeff/digital_media_class/Proj1_intro_vid/thumbnail/fdcb74a0-e501-11e6-9631-e8b1fc98bbfb_jpg_1.png'
p328
sg24
S'me-bbd2.jpg'
p329
sg114
I82
sg115
S'centre'
p330
sg117
I01
sg118
F2.1200000000000001
sg119
S'f173c492-e502-11e6-9631-e8b1fc98bbfb'
p331
sba(iclasses.clip
clip
p332
(dp333
g37
g38
sg39
I01
sg40
I00
sg41
(dp334
g43
(iclasses.keyframe
keyframe
p335
(dp336
g46
I0
sg47
F100
sg48
F100
sS'x'
F0
sS'y'
F0
sg49
F1
sg50
S'1cfd322f-e503-11e6-9631-e8b1fc98bbfb'
p337
sbsg52
(iclasses.keyframe
keyframe
p338
(dp339
g46
I-1
sg47
F100
sg48
F100
sS'x'
F0
sS'y'
F0
sg49
F1
sg50
S'1cfd3230-e503-11e6-9631-e8b1fc98bbfb'
p340
sbssg56
F2
sg57
I00
sg58
I00
sg59
F1
sg60
I01
sg61
F2
sg62
F23.317647058820004
sg63
F48.5
sg64
F1705.5
sg65
I01
sg67
F2
sg68
F300
sg69
I00
sg70
S'centre'
p341
sg72
I00
sg74
I00
sg75
I00
sg76
F2
sg77
g31
sg78
I01
sg79
F0
sg80
(iclasses.files
OpenShotFile
p342
(dp343
g83
F14999
sg84
S''
sg85
I0
sg86
S'/home/jeff/digital_media_class/Proj1_intro_vid/thumbnail/fdcb74a2-e501-11e6-9631-e8b1fc98bbfb_jpg_1.png'
p344
sg88
S'/home/jeff/digital_media_class/Proj1_intro_vid/pics/bbdoll/me-bbd3.jpg'
p345
sg90
Nsg91
g92
sg93
I0
sg47
I720
sg94
g1
sg48
I960
sg95
F300
sg96
F29.970029970029969
sg97
I1
sg98
S''
sg99
(F29.970029970029969
I0
tp346
sg101
S''
sg50
S'fe963a84-e501-11e6-9631-e8b1fc98bbfb'
p347
sbsg103
I00
sg104
F100
sg105
(lp348
sg108
F0
sg109
I00
sg110
S'/home/jeff/digital_media_class/Proj1_intro_vid/thumbnail/fdcb74a2-e501-11e6-9631-e8b1fc98bbfb_jpg_1.png'
p349
sg24
S'me-bbd3.jpg'
p350
sS'timeline_current_position'
p351
I0
sg115
S'centre'
p352
sg117
I01
sg118
F2.1200000000000001
sg119
S'1cfd322e-e503-11e6-9631-e8b1fc98bbfb'
p353
sba(iclasses.clip
clip
p354
(dp355
g37
g38
sg39
I00
sg40
I00
sg41
(dp356
g43
(iclasses.keyframe
keyframe
p357
(dp358
g46
I0
sg47
F100
sg48
F100
sS'x'
F0
sS'y'
F0
sg49
F1
sg50
S'2c3261b1-e503-11e6-9631-e8b1fc98bbfb'
p359
sbsg52
(iclasses.keyframe
keyframe
p360
(dp361
g46
I-1
sg47
F100
sg48
F100
sS'x'
F0
sS'y'
F0
sg49
F1
sg50
S'2c3261b2-e503-11e6-9631-e8b1fc98bbfb'
p362
sbssg56
F2
sg57
I00
sg58
I00
sg59
F1
sg60
I01
sg61
F2
sg62
F25.437647058820001
sg63
F46.5
sg64
F1889.6176470589999
sg65
I01
sg67
F2
sg68
F300
sg69
I00
sg70
S'centre'
p363
sg72
I00
sg74
I00
sg75
I00
sg76
F2
sg77
g31
sg78
I01
sg79
F0
sg80
(iclasses.files
OpenShotFile
p364
(dp365
g83
F14999
sg84
S''
sg85
I0
sg86
S'/home/jeff/digital_media_class/Proj1_intro_vid/thumbnail/4513f42b-e500-11e6-9631-e8b1fc98bbfb_png_1.png'
p366
sg88
S'/home/jeff/digital_media_class/Proj1_intro_vid/art/kids.png'
p367
sg90
Nsg91
g92
sg93
I0
sg47
I400
sg94
g1
sg48
I640
sg95
F300
sg96
F29.970029970029969
sg97
I1
sg98
S''
sg99
(F29.970029970029969
I0
tp368
sg101
S''
sg50
S'4513f42c-e500-11e6-9631-e8b1fc98bbfb'
p369
sbsg103
I00
sg104
F100
sg105
(lp370
sg108
F0
sg109
I00
sg110
S'/home/jeff/digital_media_class/Proj1_intro_vid/thumbnail/4513f42b-e500-11e6-9631-e8b1fc98bbfb_png_1.png'
p371
sg24
S'kids.png'
p372
sg115
S'centre'
p373
sg117
I01
sg118
F2
sg119
S'2c3261b0-e503-11e6-9631-e8b1fc98bbfb'
p374
sba(iclasses.clip
clip
p375
(dp376
g37
g38
sg39
I00
sg40
I00
sg41
(dp377
g43
(iclasses.keyframe
keyframe
p378
(dp379
g46
I0
sg47
F100
sg48
F100
sS'x'
F0
sS'y'
F0
sg49
F1
sg50
S'47a1af79-e503-11e6-9631-e8b1fc98bbfb'
p380
sbsg52
(iclasses.keyframe
keyframe
p381
(dp382
g46
I-1
sg47
F100
sg48
F100
sS'x'
F0
sS'y'
F0
sg49
F1
sg50
S'47a1af7a-e503-11e6-9631-e8b1fc98bbfb'
p383
sbssg56
F2
sg57
I00
sg58
I00
sg59
F1
sg60
I01
sg61
F2
sg62
F27.437647058820001
sg63
F47.5
sg64
F2036.6176470589999
sg65
I01
sg67
F2
sg68
F300
sg69
I00
sg70
S'centre'
p384
sg72
I00
sg74
I00
sg75
I00
sg76
F2
sg77
g31
sg78
I01
sg79
F0
sg80
(iclasses.files
OpenShotFile
p385
(dp386
g83
F14999
sg84
S''
sg85
I0
sg86
S'/home/jeff/digital_media_class/Proj1_intro_vid/thumbnail/448d466c-e503-11e6-9631-e8b1fc98bbfb_jpg_1.png'
p387
sg88
S'/home/jeff/digital_media_class/Proj1_intro_vid/pics/kids/mike.jpg'
p388
sg90
Nsg91
g92
sg93
I0
sg47
I390
sg94
g1
sg48
I337
sg95
F300
sg96
F29.970029970029969
sg97
I1
sg98
S''
sg99
(F29.970029970029969
I0
tp389
sg101
S''
sg50
S'448d466d-e503-11e6-9631-e8b1fc98bbfb'
p390
sbsg103
I00
sg104
F100
sg105
(lp391
sg108
F0
sg109
I00
sg110
S'/home/jeff/digital_media_class/Proj1_intro_vid/thumbnail/448d466c-e503-11e6-9631-e8b1fc98bbfb_jpg_1.png'
p392
sg24
S'mike.jpg'
p393
sg115
S'centre'
p394
sg117
I01
sg118
F2.1200000000000001
sg119
S'47a1af78-e503-11e6-9631-e8b1fc98bbfb'
p395
sba(iclasses.clip
clip
p396
(dp397
g37
g38
sg39
I00
sg40
I00
sg41
(dp398
g43
(iclasses.keyframe
keyframe
p399
(dp400
g46
I0
sg47
F100
sg48
F100
sS'x'
F0
sS'y'
F0
sg49
F1
sg50
S'61fbb88d-e503-11e6-9631-e8b1fc98bbfb'
p401
sbsg52
(iclasses.keyframe
keyframe
p402
(dp403
g46
I-1
sg47
F100
sg48
F100
sS'x'
F0
sS'y'
F0
sg49
F1
sg50
S'61fbb88e-e503-11e6-9631-e8b1fc98bbfb'
p404
sbssg56
F2
sg57
I00
sg58
I00
sg59
F1
sg60
I01
sg61
F2
sg62
F29.557647058820002
sg63
F50.5
sg64
F2180.6176470589999
sg65
I01
sg67
F2
sg68
F300
sg69
I00
sg70
S'centre'
p405
sg72
I00
sg74
I00
sg75
I00
sg76
F2
sg77
g31
sg78
I01
sg79
F0
sg80
(iclasses.files
OpenShotFile
p406
(dp407
g83
F14999
sg84
S''
sg85
I0
sg86
S'/home/jeff/digital_media_class/Proj1_intro_vid/thumbnail/5eefa284-e503-11e6-9631-e8b1fc98bbfb_jpg_1.png'
p408
sg88
S'/home/jeff/digital_media_class/Proj1_intro_vid/pics/kids/mel.jpg'
p409
sg90
Nsg91
g92
sg93
I0
sg47
I824
sg94
g1
sg48
I571
sg95
F300
sg96
F29.970029970029969
sg97
I1
sg98
S''
sg99
(F29.970029970029969
I0
tp410
sg101
S''
sg50
S'5eefa285-e503-11e6-9631-e8b1fc98bbfb'
p411
sbsg103
I00
sg104
F100
sg105
(lp412
sg108
F0
sg109
I00
sg110
S'/home/jeff/digital_media_class/Proj1_intro_vid/thumbnail/5eefa284-e503-11e6-9631-e8b1fc98bbfb_jpg_1.png'
p413
sg24
S'mel.jpg'
p414
sg115
S'centre'
p415
sg117
I01
sg118
F2.1200000000000001
sg119
S'61fbb88c-e503-11e6-9631-e8b1fc98bbfb'
p416
sba(iclasses.clip
clip
p417
(dp418
g37
g38
sg39
I00
sg40
I00
sg41
(dp419
g43
(iclasses.keyframe
keyframe
p420
(dp421
g46
I0
sg47
F100
sg48
F100
sS'x'
F0
sS'y'
F0
sg49
F1
sg50
S'120df67d-e504-11e6-9631-e8b1fc98bbfb'
p422
sbsg52
(iclasses.keyframe
keyframe
p423
(dp424
g46
I-1
sg47
F100
sg48
F100
sS'x'
F0
sS'y'
F0
sg49
F1
sg50
S'120df67e-e504-11e6-9631-e8b1fc98bbfb'
p425
sbssg56
F2
sg57
I00
sg58
I00
sg59
F1
sg60
I01
sg61
F2
sg62
F31.677647058820003
sg63
F56.5
sg64
F2329.6176470589999
sg65
I01
sg67
F2
sg68
F300
sg69
I00
sg70
S'centre'
p426
sg72
I00
sg74
I00
sg75
I00
sg76
F2
sg77
g31
sg78
I01
sg79
F0
sg80
(iclasses.files
OpenShotFile
p427
(dp428
g83
F14999
sg84
S''
sg85
I0
sg86
S'/home/jeff/digital_media_class/Proj1_intro_vid/thumbnail/0f7b8f0a-e504-11e6-9631-e8b1fc98bbfb_jpg_1.png'
p429
sg88
S'/home/jeff/digital_media_class/Proj1_intro_vid/pics/kids/mike_kelsey1.jpg'
p430
sg90
Nsg91
g92
sg93
I0
sg47
I206
sg94
g1
sg48
I274
sg95
F300
sg96
F29.970029970029969
sg97
I1
sg98
S''
sg99
(F29.970029970029969
I0
tp431
sg101
S''
sg50
S'0f7b8f0b-e504-11e6-9631-e8b1fc98bbfb'
p432
sbsg103
I00
sg104
F100
sg105
(lp433
sg108
F0
sg109
I00
sg110
S'/home/jeff/digital_media_class/Proj1_intro_vid/thumbnail/0f7b8f0a-e504-11e6-9631-e8b1fc98bbfb_jpg_1.png'
p434
sg24
S'mike_kelsey1.jpg'
p435
sg115
S'centre'
p436
sg117
I01
sg118
F2.1200000000000001
sg119
S'120df67c-e504-11e6-9631-e8b1fc98bbfb'
p437
sba(iclasses.clip
clip
p438
(dp439
g37
g38
sg39
I00
sg40
I00
sg41
(dp440
g43
(iclasses.keyframe
keyframe
p441
(dp442
g46
I0
sg47
F100
sg48
F100
sS'x'
F0
sS'y'
F0
sg49
F1
sg50
S'3cde3809-e504-11e6-9631-e8b1fc98bbfb'
p443
sbsg52
(iclasses.keyframe
keyframe
p444
(dp445
g46
I-1
sg47
F100
sg48
F100
sS'x'
F0
sS'y'
F0
sg49
F1
sg50
S'3cde380a-e504-11e6-9631-e8b1fc98bbfb'
p446
sbssg56
F2
sg57
I00
sg58
I00
sg59
F1
sg60
I01
sg61
F2
sg62
F33.797647058820004
sg63
F49.5
sg64
F2479.6176470589999
sg65
I01
sg67
F2
sg68
F300
sg172
I00
sg70
S'centre'
p447
sg72
I00
sg74
I00
sg75
I00
sg76
F2
sg77
g31
sg78
I01
sg79
F0
sg80
(iclasses.files
OpenShotFile
p448
(dp449
g83
F14999
sg84
S''
sg85
I0
sg86
S'/home/jeff/digital_media_class/Proj1_intro_vid/thumbnail/3b01d1d4-e504-11e6-9631-e8b1fc98bbfb_jpg_1.png'
p450
sg88
S'/home/jeff/digital_media_class/Proj1_intro_vid/pics/kids/mel_austan.jpg'
p451
sg90
Nsg91
g92
sg93
I0
sg47
I960
sg94
g1
sg48
I960
sg95
F300
sg96
F29.970029970029969
sg97
I1
sg98
S''
sg99
(F29.970029970029969
I0
tp452
sg101
S''
sg50
S'3b01d1d5-e504-11e6-9631-e8b1fc98bbfb'
p453
sbsg103
I00
sg104
F100
sg105
(lp454
sg108
F0
sg109
I00
sg110
S'/home/jeff/digital_media_class/Proj1_intro_vid/thumbnail/3b01d1d4-e504-11e6-9631-e8b1fc98bbfb_jpg_1.png'
p455
sg24
S'mel_austan.jpg'
p456
sg115
S'centre'
p457
sg117
I01
sg118
F2.2000000000000002
sg119
S'3cde3808-e504-11e6-9631-e8b1fc98bbfb'
p458
sba(iclasses.clip
clip
p459
(dp460
S'color'
p461
S'Gold'
p462
sS'moved'
p463
I00
sS'video_fade_out'
p464
I00
sS'keyframes'
p465
(dp466
S'start'
p467
(iclasses.keyframe
keyframe
p468
(dp469
g46
I0
sg47
F100
sg48
F100
sS'x'
F0
sS'y'
F0
sg49
F1
sg50
S'3f9ab2a1-e50f-11e6-9631-e8b1fc98bbfb'
p470
sbsS'end'
p471
(iclasses.keyframe
keyframe
p472
(dp473
g46
I-1
sg47
F100
sg48
F100
sS'x'
F0
sS'y'
F0
sg49
F1
sg50
S'3f9ab2a2-e50f-11e6-9631-e8b1fc98bbfb'
p474
sbssS'video_fade_out_amount'
p475
F2
sS'audio_fade_out'
p476
I00
sS'reversed'
p477
I00
sS'speed'
p478
F1
sS'fill'
p479
I01
sS'audio_fade_in_amount'
p480
F2
sS'position_on_track'
p481
F35.99764705882
sS'drag_y'
p482
F42.5
sS'drag_x'
p483
F1012.6176470589999
sS'play_audio'
p484
I01
sS'audio_fade_out_amount'
p485
F2
sS'max_length'
p486
F300
sS'valign'
p487
S'centre'
p488
sS'video_fade_in'
p489
I00
sS'audio_fade_in'
p490
I00
sS'request_show_properties'
p491
I00
sS'video_fade_in_amount'
p492
F2
sS'parent'
p493
g31
sS'composite'
p494
I01
sS'start_time'
p495
F0
sS'file_object'
p496
(iclasses.files
OpenShotFile
p497
(dp498
g83
F14999
sg84
S''
sg85
I0
sg86
S'/home/jeff/digital_media_class/Proj1_intro_vid/thumbnail/4513f429-e500-11e6-9631-e8b1fc98bbfb_png_1.png'
p499
sg88
S'/home/jeff/digital_media_class/Proj1_intro_vid/art/grandkids.png'
p500
sg90
Nsg91
g92
sg93
I0
sg47
I400
sg94
g1
sg48
I640
sg95
F300
sg96
F29.970029970029969
sg97
I1
sg98
S''
sg99
(F29.970029970029969
I0
tp501
sg101
S''
sg50
S'4513f42a-e500-11e6-9631-e8b1fc98bbfb'
p502
sbsS'distort'
p503
I00
sS'volume'
p504
F100
sS'effects'
p505
(lp506
sS'rotation'
p507
F0
sS'is_timeline_scrolling'
p508
I00
sS'thumb_location'
p509
S'/home/jeff/digital_media_class/Proj1_intro_vid/thumbnail/4513f429-e500-11e6-9631-e8b1fc98bbfb_png_1.png'
p510
sS'name'
p511
S'grandkids.png'
p512
sS'halign'
p513
S'centre'
p514
sS'play_video'
p515
I01
sS'end_time'
p516
F2.5
sS'unique_id'
p517
S'3f9ab2a0-e50f-11e6-9631-e8b1fc98bbfb'
p518
sba(iclasses.clip
clip
p519
(dp520
g461
g462
sg463
I00
sg464
I00
sg465
(dp521
g467
(iclasses.keyframe
keyframe
p522
(dp523
g46
I0
sg47
F100
sg48
F100
sS'x'
F0
sS'y'
F0
sg49
F1
sg50
S'6444dbf9-e50f-11e6-9631-e8b1fc98bbfb'
p524
sbsg471
(iclasses.keyframe
keyframe
p525
(dp526
g46
I-1
sg47
F100
sg48
F100
sS'x'
F0
sS'y'
F0
sg49
F1
sg50
S'6444dbfa-e50f-11e6-9631-e8b1fc98bbfb'
p527
sbssg475
F2
sg476
I00
sg477
I00
sg478
F1
sg479
I01
sg480
F2
sg481
F38.49764705882
sg482
F28.5
sg483
F558.61764705900009
sg484
I01
sg485
F2
sg486
F300
sg487
S'centre'
p528
sg489
I00
sg490
I00
sg491
I00
sg492
F2
sg493
g31
sg494
I01
sg495
F0
sg496
(iclasses.files
OpenShotFile
p529
(dp530
g83
F14999
sg84
S''
sg85
I0
sg86
S'/home/jeff/digital_media_class/Proj1_intro_vid/thumbnail/607090ee-e50f-11e6-9631-e8b1fc98bbfb_jpg_1.png'
p531
sg88
S'/home/jeff/digital_media_class/Proj1_intro_vid/pics/grandkids/mason.jpg'
p532
sg90
Nsg91
S'image'
p533
sg93
I0
sg47
I727
sg94
g1
sg48
I720
sg95
F300
sg96
F29.970029970029969
sg97
I1
sg98
S''
sg99
(F29.970029970029969
I0
tp534
sg101
S''
sg50
S'607090ef-e50f-11e6-9631-e8b1fc98bbfb'
p535
sbsg503
I00
sg504
F100
sg505
(lp536
sg507
F0
sg508
I00
sg509
S'/home/jeff/digital_media_class/Proj1_intro_vid/thumbnail/607090ee-e50f-11e6-9631-e8b1fc98bbfb_jpg_1.png'
p537
sg511
S'mason.jpg'
p538
sg513
S'centre'
p539
sg515
I01
sg516
F2.5
sg517
S'6444dbf8-e50f-11e6-9631-e8b1fc98bbfb'
p540
sba(iclasses.clip
clip
p541
(dp542
g461
g462
sg463
I00
sg464
I00
sg465
(dp543
g467
(iclasses.keyframe
keyframe
p544
(dp545
g46
I0
sg47
F100
sg48
F100
sS'x'
F0
sS'y'
F0
sg49
F1
sg50
S'4e7293f1-e510-11e6-9631-e8b1fc98bbfb'
p546
sbsg471
(iclasses.keyframe
keyframe
p547
(dp548
g46
I-1
sg47
F100
sg48
F100
sS'x'
F0
sS'y'
F0
sg49
F1
sg50
S'4e7293f2-e510-11e6-9631-e8b1fc98bbfb'
p549
sbssg475
F2
sg476
I00
sg477
I00
sg478
F1
sg479
I01
sg480
F2
sg481
F40.99764705882
sg482
F39.5
sg483
F862.61764705899986
sg484
I01
sg485
F2
sg486
F300
sg487
S'centre'
p550
sg489
I00
sg490
I00
sg491
I00
sg492
F2
sg493
g31
sg494
I01
sg495
F0
sg496
(iclasses.files
OpenShotFile
p551
(dp552
g83
F14999
sg84
S''
sg85
I0
sg86
S'/home/jeff/digital_media_class/Proj1_intro_vid/thumbnail/4bfeebb4-e510-11e6-9631-e8b1fc98bbfb_jpg_1.png'
p553
sg88
S'/home/jeff/digital_media_class/Proj1_intro_vid/pics/grandkids/masonbb.jpg'
p554
sg90
Nsg91
g533
sg93
I0
sg47
I526
sg94
g1
sg48
I526
sg95
F300
sg96
F29.970029970029969
sg97
I1
sg98
S''
sg99
(F29.970029970029969
I0
tp555
sg101
S''
sg50
S'4bfeebb5-e510-11e6-9631-e8b1fc98bbfb'
p556
sbsg503
I00
sg504
F100
sg505
(lp557
sg507
F0
sg508
I00
sg509
S'/home/jeff/digital_media_class/Proj1_intro_vid/thumbnail/4bfeebb4-e510-11e6-9631-e8b1fc98bbfb_jpg_1.png'
p558
sg511
S'masonbb.jpg'
p559
sg513
S'centre'
p560
sg515
I01
sg516
F2.5
sg517
S'4e7293f0-e510-11e6-9631-e8b1fc98bbfb'
p561
sba(iclasses.clip
clip
p562
(dp563
g461
g462
sg463
I00
sg464
I00
sg465
(dp564
g467
(iclasses.keyframe
keyframe
p565
(dp566
g46
I0
sg47
F100
sg48
F100
sS'x'
F0
sS'y'
F0
sg49
F1
sg50
S'69d39587-e510-11e6-9631-e8b1fc98bbfb'
p567
sbsg471
(iclasses.keyframe
keyframe
p568
(dp569
g46
I-1
sg47
F100
sg48
F100
sS'x'
F0
sS'y'
F0
sg49
F1
sg50
S'69d39588-e510-11e6-9631-e8b1fc98bbfb'
p570
sbssg475
F2
sg476
I00
sg477
I00
sg478
F1
sg479
I01
sg480
F2
sg481
F43.49764705882
sg482
F43.5
sg483
F575.61764705899986
sg484
I01
sg485
F2
sg486
F300
sg487
S'centre'
p571
sg489
I00
sg490
I00
sg491
I00
sg492
F2
sg493
g31
sg494
I01
sg495
F0
sg496
(iclasses.files
OpenShotFile
p572
(dp573
g83
F14999
sg84
S''
sg85
I0
sg86
S'/home/jeff/digital_media_class/Proj1_intro_vid/thumbnail/67ecaf46-e510-11e6-9631-e8b1fc98bbfb_jpg_1.png'
p574
sg88
S'/home/jeff/digital_media_class/Proj1_intro_vid/pics/grandkids/kaiya.jpg'
p575
sg90
Nsg91
g533
sg93
I0
sg47
I719
sg94
g1
sg48
I1279
sg95
F300
sg96
F29.970029970029969
sg97
I1
sg98
S''
sg99
(F29.970029970029969
I0
tp576
sg101
S''
sg50
S'67ecaf47-e510-11e6-9631-e8b1fc98bbfb'
p577
sbsg503
I00
sg504
F100
sg505
(lp578
sg507
F0
sg508
I00
sg509
S'/home/jeff/digital_media_class/Proj1_intro_vid/thumbnail/67ecaf46-e510-11e6-9631-e8b1fc98bbfb_jpg_1.png'
p579
sg511
S'kaiya.jpg'
p580
sg513
S'centre'
p581
sg515
I01
sg516
F2.5
sg517
S'69d39586-e510-11e6-9631-e8b1fc98bbfb'
p582
sba(iclasses.clip
clip
p583
(dp584
g461
g462
sg463
I00
sg464
I00
sg465
(dp585
g467
(iclasses.keyframe
keyframe
p586
(dp587
g46
I0
sg47
F100
sg48
F100
sS'x'
F0
sS'y'
F0
sg49
F1
sg50
S'840708ad-e510-11e6-9631-e8b1fc98bbfb'
p588
sbsg471
(iclasses.keyframe
keyframe
p589
(dp590
g46
I-1
sg47
F100
sg48
F100
sS'x'
F0
sS'y'
F0
sg49
F1
sg50
S'840708ae-e510-11e6-9631-e8b1fc98bbfb'
p591
sbssg475
F2
sg476
I00
sg477
I00
sg478
F1
sg479
I01
sg480
F2
sg481
F45.99764705882
sg482
F45.5
sg483
F551.61764705899986
sg484
I01
sg485
F2
sg486
F300
sg487
S'centre'
p592
sg489
I00
sg490
I00
sg491
I00
sg492
F2
sg493
g31
sg494
I01
sg495
F0
sg496
(iclasses.files
OpenShotFile
p593
(dp594
g83
F14999
sg84
S''
sg85
I0
sg86
S'/home/jeff/digital_media_class/Proj1_intro_vid/thumbnail/8251455e-e510-11e6-9631-e8b1fc98bbfb_jpg_1.png'
p595
sg88
S'/home/jeff/digital_media_class/Proj1_intro_vid/pics/grandkids/ali.jpg'
p596
sg90
Nsg91
g533
sg93
I0
sg47
I1350
sg94
g1
sg48
I1080
sg95
F300
sg96
F29.970029970029969
sg97
I1
sg98
S''
sg99
(F29.970029970029969
I0
tp597
sg101
S''
sg50
S'8251455f-e510-11e6-9631-e8b1fc98bbfb'
p598
sbsg503
I00
sg504
F100
sg505
(lp599
sg507
F0
sg508
I00
sg509
S'/home/jeff/digital_media_class/Proj1_intro_vid/thumbnail/8251455e-e510-11e6-9631-e8b1fc98bbfb_jpg_1.png'
p600
sg511
S'ali.jpg'
p601
sg513
S'centre'
p602
sg515
I01
sg516
F2.5
sg517
S'840708ac-e510-11e6-9631-e8b1fc98bbfb'
p603
sba(iclasses.clip
clip
p604
(dp605
g461
g462
sg463
I00
sg464
I00
sg465
(dp606
g467
(iclasses.keyframe
keyframe
p607
(dp608
g46
I0
sg47
F100
sg48
F100
sS'x'
F0
sS'y'
F0
sg49
F1
sg50
S'23255083-e512-11e6-9631-e8b1fc98bbfb'
p609
sbsg471
(iclasses.keyframe
keyframe
p610
(dp611
g46
I-1
sg47
F100
sg48
F100
sS'x'
F0
sS'y'
F0
sg49
F1
sg50
S'23255084-e512-11e6-9631-e8b1fc98bbfb'
p612
sbssg475
F2
sg476
I00
sg477
I00
sg478
F1
sg479
I01
sg480
F2
sg481
F48.49764705882
sg482
F53.5
sg483
F677.61764705899986
sg484
I01
sg485
F2
sg486
F300
sg487
S'centre'
p613
sg489
I00
sg490
I00
sg491
I00
sg492
F2
sg493
g31
sg494
I01
sg495
F0
sg496
(iclasses.files
OpenShotFile
p614
(dp615
g83
F14999
sg84
S''
sg85
I0
sg86
S'/home/jeff/digital_media_class/Proj1_intro_vid/thumbnail/1d47c7c6-e512-11e6-9631-e8b1fc98bbfb_jpg_1.png'
p616
sg88
S'/home/jeff/digital_media_class/Proj1_intro_vid/pics/grandkids/twins.jpg'
p617
sg90
Nsg91
g533
sg93
I0
sg47
I959
sg94
g1
sg48
I1279
sg95
F300
sg96
F29.970029970029969
sg97
I1
sg98
S''
sg99
(F29.970029970029969
I0
tp618
sg101
S''
sg50
S'1d47c7c7-e512-11e6-9631-e8b1fc98bbfb'
p619
sbsg503
I00
sg504
F100
sg505
(lp620
sg507
F0
sg508
I00
sg509
S'/home/jeff/digital_media_class/Proj1_intro_vid/thumbnail/1d47c7c6-e512-11e6-9631-e8b1fc98bbfb_jpg_1.png'
p621
sg511
S'twins.jpg'
p622
sg513
S'centre'
p623
sg515
I01
sg516
F2.5
sg517
S'23255082-e512-11e6-9631-e8b1fc98bbfb'
p624
sba(iclasses.clip
clip
p625
(dp626
g461
g462
sg463
I00
sg464
I00
sg465
(dp627
g467
(iclasses.keyframe
keyframe
p628
(dp629
g46
I0
sg47
F100
sg48
F100
sS'x'
F0
sS'y'
F0
sg49
F1
sg50
S'3c564ea9-e512-11e6-9631-e8b1fc98bbfb'
p630
sbsg471
(iclasses.keyframe
keyframe
p631
(dp632
g46
I-1
sg47
F100
sg48
F100
sS'x'
F0
sS'y'
F0
sg49
F1
sg50
S'3c564eaa-e512-11e6-9631-e8b1fc98bbfb'
p633
sbssg475
F2
sg476
I00
sg477
I00
sg478
F1
sg479
I01
sg480
F2
sg481
F50.99764705882
sg482
F47.5
sg483
F757.61764705899986
sg484
I01
sg485
F2
sg486
F300
sg487
S'centre'
p634
sg489
I00
sg490
I00
sg491
I00
sg492
F2
sg493
g31
sg494
I01
sg495
F0
sg496
(iclasses.files
OpenShotFile
p635
(dp636
g83
F14999
sg84
S''
sg85
I0
sg86
S'/home/jeff/digital_media_class/Proj1_intro_vid/thumbnail/38ab6112-e512-11e6-9631-e8b1fc98bbfb_jpg_1.png'
p637
sg88
S'/home/jeff/digital_media_class/Proj1_intro_vid/pics/grandkids/bri.jpg'
p638
sg90
Nsg91
g533
sg93
I0
sg47
I725
sg94
g1
sg48
I567
sg95
F300
sg96
F29.970029970029969
sg97
I1
sg98
S''
sg99
(F29.970029970029969
I0
tp639
sg101
S''
sg50
S'38ab6113-e512-11e6-9631-e8b1fc98bbfb'
p640
sbsg503
I00
sg504
F100
sg505
(lp641
sg507
F0
sg508
I00
sg509
S'/home/jeff/digital_media_class/Proj1_intro_vid/thumbnail/38ab6112-e512-11e6-9631-e8b1fc98bbfb_jpg_1.png'
p642
sg511
S'bri.jpg'
p643
sg513
S'centre'
p644
sg515
I01
sg516
F2.5
sg517
S'3c564ea8-e512-11e6-9631-e8b1fc98bbfb'
p645
sba(iclasses.clip
clip
p646
(dp647
g461
g462
sg463
I00
sg464
I00
sg465
(dp648
g467
(iclasses.keyframe
keyframe
p649
(dp650
g46
I0
sg47
F100
sg48
F100
sS'x'
F0
sS'y'
F0
sg49
F1
sg50
S'53678063-e512-11e6-9631-e8b1fc98bbfb'
p651
sbsg471
(iclasses.keyframe
keyframe
p652
(dp653
g46
I-1
sg47
F100
sg48
F100
sS'x'
F0
sS'y'
F0
sg49
F1
sg50
S'53678064-e512-11e6-9631-e8b1fc98bbfb'
p654
sbssg475
F2
sg476
I00
sg477
I00
sg478
F1
sg479
I01
sg480
F2
sg481
F53.49764705882
sg482
F41.5
sg483
F451.61764705899986
sg484
I01
sg485
F2
sg486
F300
sg172
I00
sg487
S'centre'
p655
sg489
I00
sg490
I00
sg491
I00
sg492
F2
sg493
g31
sg494
I01
sg495
F0
sg496
(iclasses.files
OpenShotFile
p656
(dp657
g83
F14999
sg84
S''
sg85
I0
sg86
S'/home/jeff/digital_media_class/Proj1_intro_vid/thumbnail/51391cf6-e512-11e6-9631-e8b1fc98bbfb_jpg_1.png'
p658
sg88
S'/home/jeff/digital_media_class/Proj1_intro_vid/pics/grandkids/brizilla.jpg'
p659
sg90
Nsg91
g533
sg93
I0
sg47
I954
sg94
g1
sg48
I954
sg95
F300
sg96
F29.970029970029969
sg97
I1
sg98
S''
sg99
(F29.970029970029969
I0
tp660
sg101
S''
sg50
S'51391cf7-e512-11e6-9631-e8b1fc98bbfb'
p661
sbsg503
I00
sg504
F100
sg505
(lp662
sg507
F0
sg508
I00
sg509
S'/home/jeff/digital_media_class/Proj1_intro_vid/thumbnail/51391cf6-e512-11e6-9631-e8b1fc98bbfb_jpg_1.png'
p663
sg511
S'brizilla.jpg'
p664
sg513
S'centre'
p665
sg515
I01
sg516
F2.5
sg517
S'53678062-e512-11e6-9631-e8b1fc98bbfb'
p666
sba(iclasses.clip
clip
p667
(dp668
g461
g462
sg463
I00
sg464
I00
sg465
(dp669
g467
(iclasses.keyframe
keyframe
p670
(dp671
g46
I0
sg47
F100
sg48
F100
sS'x'
F0
sS'y'
F0
sg49
F1
sg50
S'8793dd5f-e512-11e6-9631-e8b1fc98bbfb'
p672
sbsg471
(iclasses.keyframe
keyframe
p673
(dp674
g46
I-1
sg47
F100
sg48
F100
sS'x'
F0
sS'y'
F0
sg49
F1
sg50
S'8793dd60-e512-11e6-9631-e8b1fc98bbfb'
p675
sbssg475
F2
sg476
I00
sg477
I00
sg478
F1
sg479
I01
sg480
F2
sg481
F55.99764705882
sg482
F50.5
sg483
F873.61764705899986
sg484
I01
sg485
F2
sg486
F300
sg487
S'centre'
p676
sg489
I00
sg490
I00
sg491
I00
sg492
F2
sg493
g31
sg494
I01
sg495
F0
sg496
(iclasses.files
OpenShotFile
p677
(dp678
g83
F14999
sg84
S''
sg85
I0
sg86
S'/home/jeff/digital_media_class/Proj1_intro_vid/thumbnail/83fa17ee-e512-11e6-9631-e8b1fc98bbfb_jpg_1.png'
p679
sg88
S'/home/jeff/digital_media_class/Proj1_intro_vid/pics/grandkids/kimber.jpg'
p680
sg90
Nsg91
g533
sg93
I0
sg47
I960
sg94
g1
sg48
I960
sg95
F300
sg96
F29.970029970029969
sg97
I1
sg98
S''
sg99
(F29.970029970029969
I0
tp681
sg101
S''
sg50
S'83fa17ef-e512-11e6-9631-e8b1fc98bbfb'
p682
sbsg503
I00
sg504
F100
sg505
(lp683
sg507
F0
sg508
I00
sg509
S'/home/jeff/digital_media_class/Proj1_intro_vid/thumbnail/83fa17ee-e512-11e6-9631-e8b1fc98bbfb_jpg_1.png'
p684
sg511
S'kimber.jpg'
p685
sg513
S'centre'
p686
sg515
I01
sg516
F2.5
sg517
S'8793dd5e-e512-11e6-9631-e8b1fc98bbfb'
p687
sba(iclasses.clip
clip
p688
(dp689
g461
g462
sg463
I00
sg464
I00
sg465
(dp690
g467
(iclasses.keyframe
keyframe
p691
(dp692
g46
I0
sg47
F100
sg48
F100
sS'x'
F0
sS'y'
F0
sg49
F1
sg50
S'92bce113-e512-11e6-9631-e8b1fc98bbfb'
p693
sbsg471
(iclasses.keyframe
keyframe
p694
(dp695
g46
I-1
sg47
F100
sg48
F100
sS'x'
F0
sS'y'
F0
sg49
F1
sg50
S'92bce114-e512-11e6-9631-e8b1fc98bbfb'
p696
sbssg475
F2
sg476
I00
sg477
I00
sg478
F1
sg479
I01
sg480
F2
sg481
F58.49764705882
sg482
F47.5
sg483
F1259.6176470589999
sg484
I01
sg485
F2
sg486
F300
sg487
S'centre'
p697
sg489
I00
sg490
I00
sg491
I00
sg492
F2
sg493
g31
sg494
I01
sg495
F0
sg496
(iclasses.files
OpenShotFile
p698
(dp699
g83
F14999
sg84
S''
sg85
I0
sg86
S'/home/jeff/digital_media_class/Proj1_intro_vid/thumbnail/83fa17f0-e512-11e6-9631-e8b1fc98bbfb_jpg_1.png'
p700
sg88
S'/home/jeff/digital_media_class/Proj1_intro_vid/pics/grandkids/kimbershiv.jpg'
p701
sg90
Nsg91
g533
sg93
I0
sg47
I1280
sg94
g1
sg48
I960
sg95
F300
sg96
F29.970029970029969
sg97
I1
sg98
S''
sg99
(F29.970029970029969
I0
tp702
sg101
S''
sg50
S'83fa17f1-e512-11e6-9631-e8b1fc98bbfb'
p703
sbsg503
I00
sg504
F100
sg505
(lp704
sg507
F0
sg508
I00
sg509
S'/home/jeff/digital_media_class/Proj1_intro_vid/thumbnail/83fa17f0-e512-11e6-9631-e8b1fc98bbfb_jpg_1.png'
p705
sg511
S'kimbershiv.jpg'
p706
sg513
S'centre'
p707
sg515
I01
sg516
F2.5
sg517
S'92bce112-e512-11e6-9631-e8b1fc98bbfb'
p708
sba(iclasses.clip
clip
p709
(dp710
g461
g462
sg463
I00
sg464
I00
sg465
(dp711
g467
(iclasses.keyframe
keyframe
p712
(dp713
g46
I0
sg47
F100
sg48
F100
sS'x'
F0
sS'y'
F0
sg49
F1
sg50
S'8ba8b445-e514-11e6-9631-e8b1fc98bbfb'
p714
sbsg471
(iclasses.keyframe
keyframe
p715
(dp716
g46
I-1
sg47
F100
sg48
F100
sS'x'
F0
sS'y'
F0
sg49
F1
sg50
S'8ba8b446-e514-11e6-9631-e8b1fc98bbfb'
p717
sbssg475
F2
sg476
I00
sg477
I00
sg478
F1
sg479
I01
sg480
F2
sg481
F60.99764705882
sg482
F44.5
sg483
F849.61764705899986
sg484
I01
sg485
F2
sg486
F300
sg487
S'centre'
p718
sg489
I00
sg490
I00
sg491
I00
sg492
F2
sg493
g31
sg494
I01
sg495
F0
sg496
(iclasses.files
OpenShotFile
p719
(dp720
g83
F14999
sg84
S''
sg85
I0
sg86
S'/home/jeff/digital_media_class/Proj1_intro_vid/thumbnail/8829148a-e514-11e6-9631-e8b1fc98bbfb_png_1.png'
p721
sg88
S'/home/jeff/digital_media_class/Proj1_intro_vid/art/dogs.png'
p722
sg90
Nsg91
g533
sg93
I0
sg47
I400
sg94
g1
sg48
I640
sg95
F300
sg96
F29.970029970029969
sg97
I1
sg98
S''
sg99
(F29.970029970029969
I0
tp723
sg101
S''
sg50
S'8829148b-e514-11e6-9631-e8b1fc98bbfb'
p724
sbsg503
I00
sg504
F100
sg505
(lp725
sg507
F0
sg508
I00
sg509
S'/home/jeff/digital_media_class/Proj1_intro_vid/thumbnail/8829148a-e514-11e6-9631-e8b1fc98bbfb_png_1.png'
p726
sg511
S'dogs.png'
p727
sg513
S'centre'
p728
sg515
I01
sg516
F2
sg517
S'8ba8b444-e514-11e6-9631-e8b1fc98bbfb'
p729
sba(iclasses.clip
clip
p730
(dp731
g461
g462
sg463
I00
sg464
I00
sg465
(dp732
g467
(iclasses.keyframe
keyframe
p733
(dp734
g46
I0
sg47
F100
sg48
F100
sS'x'
F0
sS'y'
F0
sg49
F1
sg50
S'9e1a96d9-e514-11e6-9631-e8b1fc98bbfb'
p735
sbsg471
(iclasses.keyframe
keyframe
p736
(dp737
g46
I-1
sg47
F100
sg48
F100
sS'x'
F0
sS'y'
F0
sg49
F1
sg50
S'9e1a96da-e514-11e6-9631-e8b1fc98bbfb'
p738
sbssg475
F2
sg476
I00
sg477
I00
sg478
F1
sg479
I01
sg480
F2
sg481
F62.99764705882
sg482
F54.5
sg483
F933.61764705899986
sg484
I01
sg485
F2
sg486
F300
sg487
S'centre'
p739
sg489
I00
sg490
I00
sg491
I00
sg492
F2
sg493
g31
sg494
I01
sg495
F0
sg496
(iclasses.files
OpenShotFile
p740
(dp741
g83
F14999
sg84
S''
sg85
I0
sg86
S'/home/jeff/digital_media_class/Proj1_intro_vid/thumbnail/7f0bf946-e514-11e6-9631-e8b1fc98bbfb_jpg_1.png'
p742
sg88
S'/home/jeff/digital_media_class/Proj1_intro_vid/pics/dogs/pokey.jpg'
p743
sg90
Nsg91
g533
sg93
I0
sg47
I3096
sg94
g1
sg48
I4128
sg95
F300
sg96
F29.970029970029969
sg97
I1
sg98
S''
sg99
(F29.970029970029969
I0
tp744
sg101
S''
sg50
S'7f0bf947-e514-11e6-9631-e8b1fc98bbfb'
p745
sbsg503
I00
sg504
F100
sg505
(lp746
sg507
F0
sg508
I00
sg509
S'/home/jeff/digital_media_class/Proj1_intro_vid/thumbnail/7f0bf946-e514-11e6-9631-e8b1fc98bbfb_jpg_1.png'
p747
sg511
S'pokey.jpg'
p748
sg513
S'centre'
p749
sg515
I01
sg516
F2
sg517
S'9e1a96d8-e514-11e6-9631-e8b1fc98bbfb'
p750
sba(iclasses.clip
clip
p751
(dp752
g461
g462
sg463
I00
sg464
I00
sg465
(dp753
g467
(iclasses.keyframe
keyframe
p754
(dp755
g46
I0
sg47
F100
sg48
F100
sS'x'
F0
sS'y'
F0
sg49
F1
sg50
S'c2092731-e514-11e6-9631-e8b1fc98bbfb'
p756
sbsg471
(iclasses.keyframe
keyframe
p757
(dp758
g46
I-1
sg47
F100
sg48
F100
sS'x'
F0
sS'y'
F0
sg49
F1
sg50
S'c2092732-e514-11e6-9631-e8b1fc98bbfb'
p759
sbssg475
F2
sg476
I00
sg477
I00
sg478
F1
sg479
I01
sg480
F2
sg481
F64.997647058820007
sg482
F41.5
sg483
F415.61764705899986
sg484
I01
sg485
F2
sg486
F300
sg487
S'centre'
p760
sg489
I00
sg490
I00
sg491
I00
sg492
F2
sg493
g31
sg494
I01
sg495
F0
sg496
(iclasses.files
OpenShotFile
p761
(dp762
g83
F14999
sg84
S''
sg85
I0
sg86
S'/home/jeff/digital_media_class/Proj1_intro_vid/thumbnail/7f0bf948-e514-11e6-9631-e8b1fc98bbfb_jpg_1.png'
p763
sg88
S'/home/jeff/digital_media_class/Proj1_intro_vid/pics/dogs/pokwater.jpg'
p764
sg90
Nsg91
g533
sg93
I0
sg47
I3180
sg94
g1
sg48
I2294
sg95
F300
sg96
F29.970029970029969
sg97
I1
sg98
S''
sg99
(F29.970029970029969
I0
tp765
sg101
S''
sg50
S'800b705e-e514-11e6-9631-e8b1fc98bbfb'
p766
sbsg503
I00
sg504
F100
sg505
(lp767
sg507
F0
sg508
I00
sg509
S'/home/jeff/digital_media_class/Proj1_intro_vid/thumbnail/7f0bf948-e514-11e6-9631-e8b1fc98bbfb_jpg_1.png'
p768
sg511
S'pokwater.jpg'
p769
sg513
S'centre'
p770
sg515
I01
sg516
F2
sg517
S'c2092730-e514-11e6-9631-e8b1fc98bbfb'
p771
sba(iclasses.clip
clip
p772
(dp773
g461
g462
sg463
I00
sg464
I00
sg465
(dp774
g467
(iclasses.keyframe
keyframe
p775
(dp776
g46
I0
sg47
F100
sg48
F100
sS'x'
F0
sS'y'
F0
sg49
F1
sg50
S'd11f875b-e514-11e6-9631-e8b1fc98bbfb'
p777
sbsg471
(iclasses.keyframe
keyframe
p778
(dp779
g46
I-1
sg47
F100
sg48
F100
sS'x'
F0
sS'y'
F0
sg49
F1
sg50
S'd11f875c-e514-11e6-9631-e8b1fc98bbfb'
p780
sbssg475
F2
sg476
I00
sg477
I00
sg478
F1
sg479
I01
sg480
F2
sg481
F66.997647058820007
sg482
F42.5
sg483
F536.61764705899986
sg484
I01
sg485
F2
sg486
F300
sg172
I00
sg487
S'centre'
p781
sg489
I00
sg490
I00
sg491
I00
sg492
F2
sg493
g31
sg494
I01
sg495
F0
sg496
(iclasses.files
OpenShotFile
p782
(dp783
g83
F14999
sg84
S''
sg85
I0
sg86
S'/home/jeff/digital_media_class/Proj1_intro_vid/thumbnail/800b705f-e514-11e6-9631-e8b1fc98bbfb_jpg_1.png'
p784
sg88
S'/home/jeff/digital_media_class/Proj1_intro_vid/pics/dogs/quesey.jpg'
p785
sg90
Nsg91
g533
sg93
I0
sg47
I1200
sg94
g1
sg48
I1600
sg95
F300
sg96
F29.970029970029969
sg97
I1
sg98
S''
sg99
(F29.970029970029969
I0
tp786
sg101
S''
sg50
S'800b7060-e514-11e6-9631-e8b1fc98bbfb'
p787
sbsg503
I00
sg504
F100
sg505
(lp788
sg507
F0
sg508
I00
sg509
S'/home/jeff/digital_media_class/Proj1_intro_vid/thumbnail/800b705f-e514-11e6-9631-e8b1fc98bbfb_jpg_1.png'
p789
sg511
S'quesey.jpg'
p790
sg513
S'centre'
p791
sg515
I01
sg516
F2
sg517
S'd11f875a-e514-11e6-9631-e8b1fc98bbfb'
p792
sba(iclasses.clip
clip
p793
(dp794
g461
g462
sg463
I00
sg464
I00
sg465
(dp795
g467
(iclasses.keyframe
keyframe
p796
(dp797
g46
I0
sg47
F100
sg48
F100
sS'x'
F0
sS'y'
F0
sg49
F1
sg50
S'dae93d63-e514-11e6-9631-e8b1fc98bbfb'
p798
sbsg471
(iclasses.keyframe
keyframe
p799
(dp800
g46
I-1
sg47
F100
sg48
F100
sS'x'
F0
sS'y'
F0
sg49
F1
sg50
S'dae93d64-e514-11e6-9631-e8b1fc98bbfb'
p801
sbssg475
F2
sg476
I00
sg477
I00
sg478
F1
sg479
I01
sg480
F2
sg481
F68.997647058820007
sg482
F52.5
sg483
F3540.5
sg484
I01
sg485
F2
sg486
F300
sg172
I00
sg487
S'centre'
p802
sg489
I00
sg490
I00
sg491
I00
sg492
F2
sg493
g31
sg494
I01
sg495
F0
sg496
(iclasses.files
OpenShotFile
p803
(dp804
g83
F14999
sg84
S''
sg85
I0
sg86
S'/home/jeff/digital_media_class/Proj1_intro_vid/thumbnail/800b7061-e514-11e6-9631-e8b1fc98bbfb_jpg_1.png'
p805
sg88
S'/home/jeff/digital_media_class/Proj1_intro_vid/pics/dogs/quesey1.jpg'
p806
sg90
Nsg91
g533
sg93
I0
sg47
I1200
sg94
g1
sg48
I1600
sg95
F300
sg96
F29.970029970029969
sg97
I1
sg98
S''
sg99
(F29.970029970029969
I0
tp807
sg101
S''
sg50
S'800b7062-e514-11e6-9631-e8b1fc98bbfb'
p808
sbsg503
I00
sg504
F100
sg505
(lp809
sg507
F0
sg508
I00
sg509
S'/home/jeff/digital_media_class/Proj1_intro_vid/thumbnail/800b7061-e514-11e6-9631-e8b1fc98bbfb_jpg_1.png'
p810
sg511
S'quesey1.jpg'
p811
sg513
S'centre'
p812
sg515
I01
sg516
F2
sg517
S'dae93d62-e514-11e6-9631-e8b1fc98bbfb'
p813
sba(iclasses.clip
clip
p814
(dp815
g461
g462
sg463
I00
sg464
I00
sg465
(dp816
g467
(iclasses.keyframe
keyframe
p817
(dp818
g46
I0
sg47
F100
sg48
F100
sS'x'
F0
sS'y'
F0
sg49
F1
sg50
S'a4f20783-e516-11e6-9631-e8b1fc98bbfb'
p819
sbsg471
(iclasses.keyframe
keyframe
p820
(dp821
g46
I-1
sg47
F100
sg48
F100
sS'x'
F0
sS'y'
F0
sg49
F1
sg50
S'a4f20784-e516-11e6-9631-e8b1fc98bbfb'
p822
sbssg475
F2
sg476
I00
sg477
I00
sg478
F1
sg479
I01
sg480
F2
sg481
F71
sg482
F45.5
sg483
F3624.5
sg484
I01
sg485
F2
sg486
F300
sg172
I00
sg487
S'centre'
p823
sg489
I00
sg490
I00
sg491
I00
sg492
F2
sg493
g31
sg494
I01
sg495
F0
sg496
(iclasses.files
OpenShotFile
p824
(dp825
g83
F14999
sg84
S''
sg85
I0
sg86
S'/home/jeff/digital_media_class/Proj1_intro_vid/thumbnail/4513f431-e500-11e6-9631-e8b1fc98bbfb_png_1.png'
p826
sg88
S'/home/jeff/digital_media_class/Proj1_intro_vid/art/usmc.png'
p827
sg90
Nsg91
g92
sg93
I0
sg47
I400
sg94
g1
sg48
I640
sg95
F300
sg96
F29.970029970029969
sg97
I1
sg98
S''
sg99
(F29.970029970029969
I0
tp828
sg101
S''
sg50
S'4513f432-e500-11e6-9631-e8b1fc98bbfb'
p829
sbsg503
I00
sg504
F100
sg505
(lp830
sg507
F0
sg508
I00
sg509
S'/home/jeff/digital_media_class/Proj1_intro_vid/thumbnail/4513f431-e500-11e6-9631-e8b1fc98bbfb_png_1.png'
p831
sg511
S'usmc.png'
p832
sg513
S'centre'
p833
sg515
I01
sg516
F2
sg517
S'a4f20782-e516-11e6-9631-e8b1fc98bbfb'
p834
sba(iclasses.clip
clip
p835
(dp836
g461
g462
sg463
I00
sg464
I00
sg465
(dp837
g467
(iclasses.keyframe
keyframe
p838
(dp839
g46
I0
sg47
F100
sg48
F100
sS'x'
F0
sS'y'
F0
sg49
F1
sg50
S'fb5e5cf3-e51a-11e6-9631-e8b1fc98bbfb'
p840
sbsg471
(iclasses.keyframe
keyframe
p841
(dp842
g46
I-1
sg47
F100
sg48
F100
sS'x'
F0
sS'y'
F0
sg49
F1
sg50
S'fb5e5cf4-e51a-11e6-9631-e8b1fc98bbfb'
p843
sbssg475
F2
sg476
I00
sg477
I00
sg478
F1
sg479
I01
sg480
F2
sg481
F73
sg482
F37.5
sg483
F595.5
sg484
I01
sg485
F2
sg486
F300
sg487
S'centre'
p844
sg489
I00
sg490
I00
sg491
I00
sg492
F2
sg493
g31
sg494
I01
sg495
F0
sg496
(iclasses.files
OpenShotFile
p845
(dp846
g83
F14999
sg84
S''
sg85
I0
sg86
S'/home/jeff/digital_media_class/Proj1_intro_vid/thumbnail/b0376b16-e519-11e6-9631-e8b1fc98bbfb_jpg_1.png'
p847
sg88
S'/home/jeff/digital_media_class/Proj1_intro_vid/pics/usmc/usmctit.jpg'
p848
sg90
Nsg91
g533
sg93
I0
sg47
I1200
sg94
g1
sg48
I1920
sg95
F300
sg96
F29.970029970029969
sg97
I1
sg98
S''
sg99
(F29.970029970029969
I0
tp849
sg101
S''
sg50
S'b0376b17-e519-11e6-9631-e8b1fc98bbfb'
p850
sbsg503
I00
sg504
F100
sg505
(lp851
sg507
F0
sg508
I00
sg509
S'/home/jeff/digital_media_class/Proj1_intro_vid/thumbnail/b0376b16-e519-11e6-9631-e8b1fc98bbfb_jpg_1.png'
p852
sg511
S'usmctit.jpg'
p853
sg513
S'centre'
p854
sg515
I01
sg516
F2.3300000000000001
sg517
S'fb5e5cf2-e51a-11e6-9631-e8b1fc98bbfb'
p855
sba(iclasses.clip
clip
p856
(dp857
g461
g462
sg463
I00
sg464
I00
sg465
(dp858
g467
(iclasses.keyframe
keyframe
p859
(dp860
g46
I0
sg47
F100
sg48
F100
sS'x'
F0
sS'y'
F0
sg49
F1
sg50
S'08812429-e51b-11e6-9631-e8b1fc98bbfb'
p861
sbsg471
(iclasses.keyframe
keyframe
p862
(dp863
g46
I-1
sg47
F100
sg48
F100
sS'x'
F0
sS'y'
F0
sg49
F1
sg50
S'0881242a-e51b-11e6-9631-e8b1fc98bbfb'
p864
sbssg475
F2
sg476
I00
sg477
I00
sg478
F1
sg479
I01
sg480
F2
sg481
F75.329999999999998
sg482
F43.5
sg483
F646
sg484
I01
sg485
F2
sg486
F300
sg487
S'centre'
p865
sg489
I00
sg490
I00
sg491
I00
sg492
F2
sg493
g31
sg494
I01
sg495
F0
sg496
(iclasses.files
OpenShotFile
p866
(dp867
g83
F14999
sg84
S''
sg85
I0
sg86
S'/home/jeff/digital_media_class/Proj1_intro_vid/thumbnail/b0376b14-e519-11e6-9631-e8b1fc98bbfb_jpg_1.png'
p868
sg88
S'/home/jeff/digital_media_class/Proj1_intro_vid/pics/usmc/usmcme.jpg'
p869
sg90
Nsg91
g533
sg93
I0
sg47
I960
sg94
g1
sg48
I716
sg95
F300
sg96
F29.970029970029969
sg97
I1
sg98
S''
sg99
(F29.970029970029969
I0
tp870
sg101
S''
sg50
S'b0376b15-e519-11e6-9631-e8b1fc98bbfb'
p871
sbsg503
I00
sg504
F100
sg505
(lp872
sg507
F0
sg508
I00
sg509
S'/home/jeff/digital_media_class/Proj1_intro_vid/thumbnail/b0376b14-e519-11e6-9631-e8b1fc98bbfb_jpg_1.png'
p873
sg511
S'usmcme.jpg'
p874
sg513
S'centre'
p875
sg515
I01
sg516
F2.3300000000000001
sg517
S'08812428-e51b-11e6-9631-e8b1fc98bbfb'
p876
sba(iclasses.clip
clip
p877
(dp878
g461
g462
sg463
I00
sg464
I00
sg465
(dp879
g467
(iclasses.keyframe
keyframe
p880
(dp881
g46
I0
sg47
F100
sg48
F100
sS'x'
F0
sS'y'
F0
sg49
F1
sg50
S'13594a39-e51b-11e6-9631-e8b1fc98bbfb'
p882
sbsg471
(iclasses.keyframe
keyframe
p883
(dp884
g46
I-1
sg47
F100
sg48
F100
sS'x'
F0
sS'y'
F0
sg49
F1
sg50
S'13594a3a-e51b-11e6-9631-e8b1fc98bbfb'
p885
sbssg475
F2
sg476
I00
sg477
I00
sg478
F1
sg479
I01
sg480
F2
sg481
F77.659999999999997
sg482
F40.5
sg483
F1175.5
sg484
I01
sg485
F2
sg486
F300
sg487
S'centre'
p886
sg489
I00
sg490
I00
sg491
I00
sg492
F2
sg493
g31
sg494
I01
sg495
F0
sg496
(iclasses.files
OpenShotFile
p887
(dp888
g83
F14999
sg84
S''
sg85
I0
sg86
S'/home/jeff/digital_media_class/Proj1_intro_vid/thumbnail/b0376b0e-e519-11e6-9631-e8b1fc98bbfb_jpg_1.png'
p889
sg88
S'/home/jeff/digital_media_class/Proj1_intro_vid/pics/usmc/mcwed.jpg'
p890
sg90
Nsg91
g533
sg93
I0
sg47
I960
sg94
g1
sg48
I960
sg95
F300
sg96
F29.970029970029969
sg97
I1
sg98
S''
sg99
(F29.970029970029969
I0
tp891
sg101
S''
sg50
S'b0376b0f-e519-11e6-9631-e8b1fc98bbfb'
p892
sbsg503
I00
sg504
F100
sg505
(lp893
sg507
F0
sg508
I00
sg509
S'/home/jeff/digital_media_class/Proj1_intro_vid/thumbnail/b0376b0e-e519-11e6-9631-e8b1fc98bbfb_jpg_1.png'
p894
sg511
S'mcwed.jpg'
p895
sg513
S'centre'
p896
sg515
I01
sg516
F2.3300000000000001
sg517
S'13594a38-e51b-11e6-9631-e8b1fc98bbfb'
p897
sba(iclasses.clip
clip
p898
(dp899
g461
g462
sg463
I00
sg464
I00
sg465
(dp900
g467
(iclasses.keyframe
keyframe
p901
(dp902
g46
I0
sg47
F100
sg48
F100
sS'x'
F0
sS'y'
F0
sg49
F1
sg50
S'1f5cafdd-e51b-11e6-9631-e8b1fc98bbfb'
p903
sbsg471
(iclasses.keyframe
keyframe
p904
(dp905
g46
I-1
sg47
F100
sg48
F100
sS'x'
F0
sS'y'
F0
sg49
F1
sg50
S'1f5cafde-e51b-11e6-9631-e8b1fc98bbfb'
p906
sbssg475
F2
sg476
I00
sg477
I00
sg478
F1
sg479
I01
sg480
F2
sg481
F79.989999999999995
sg482
F46.5
sg483
F969
sg484
I01
sg485
F2
sg486
F300
sg172
I00
sg487
S'centre'
p907
sg489
I00
sg490
I00
sg491
I00
sg492
F2
sg493
g31
sg494
I01
sg495
F0
sg496
(iclasses.files
OpenShotFile
p908
(dp909
g83
F14999
sg84
S''
sg85
I0
sg86
S'/home/jeff/digital_media_class/Proj1_intro_vid/thumbnail/b0376b10-e519-11e6-9631-e8b1fc98bbfb_jpg_1.png'
p910
sg88
S'/home/jeff/digital_media_class/Proj1_intro_vid/pics/usmc/nam.jpg'
p911
sg90
Nsg91
g533
sg93
I0
sg47
I1500
sg94
g1
sg48
I2100
sg95
F300
sg96
F29.970029970029969
sg97
I1
sg98
S''
sg99
(F29.970029970029969
I0
tp912
sg101
S''
sg50
S'b0376b11-e519-11e6-9631-e8b1fc98bbfb'
p913
sbsg503
I00
sg504
F100
sg505
(lp914
sg507
F0
sg508
I00
sg509
S'/home/jeff/digital_media_class/Proj1_intro_vid/thumbnail/b0376b10-e519-11e6-9631-e8b1fc98bbfb_jpg_1.png'
p915
sg511
S'nam.jpg'
p916
sg513
S'centre'
p917
sg515
I01
sg516
F2.3300000000000001
sg517
S'1f5cafdc-e51b-11e6-9631-e8b1fc98bbfb'
p918
sba(iclasses.clip
clip
p919
(dp920
g461
g462
sg463
I00
sg464
I00
sg465
(dp921
g467
(iclasses.keyframe
keyframe
p922
(dp923
g46
I0
sg47
F100
sg48
F100
sS'x'
F0
sS'y'
F0
sg49
F1
sg50
S'30594aa3-e51b-11e6-9631-e8b1fc98bbfb'
p924
sbsg471
(iclasses.keyframe
keyframe
p925
(dp926
g46
I-1
sg47
F100
sg48
F100
sS'x'
F0
sS'y'
F0
sg49
F1
sg50
S'30594aa4-e51b-11e6-9631-e8b1fc98bbfb'
p927
sbssg475
F2
sg476
I00
sg477
I00
sg478
F1
sg479
I01
sg480
F2
sg481
F82.319999999999993
sg482
F50.5
sg483
F1489.5
sg484
I01
sg485
F2
sg486
F300
sg487
S'centre'
p928
sg489
I00
sg490
I00
sg491
I00
sg492
F2
sg493
g31
sg494
I01
sg495
F0
sg496
(iclasses.files
OpenShotFile
p929
(dp930
g83
F14999
sg84
S''
sg85
I0
sg86
S'/home/jeff/digital_media_class/Proj1_intro_vid/thumbnail/b0376b0c-e519-11e6-9631-e8b1fc98bbfb_jpg_1.png'
p931
sg88
S'/home/jeff/digital_media_class/Proj1_intro_vid/pics/usmc/fldusmc.jpg'
p932
sg90
Nsg91
g533
sg93
I0
sg47
I1131
sg94
g1
sg48
I1152
sg95
F300
sg96
F29.970029970029969
sg97
I1
sg98
S''
sg99
(F29.970029970029969
I0
tp933
sg101
S''
sg50
S'b0376b0d-e519-11e6-9631-e8b1fc98bbfb'
p934
sbsg503
I00
sg504
F100
sg505
(lp935
sg507
F0
sg508
I00
sg509
S'/home/jeff/digital_media_class/Proj1_intro_vid/thumbnail/b0376b0c-e519-11e6-9631-e8b1fc98bbfb_jpg_1.png'
p936
sg511
S'fldusmc.jpg'
p937
sg513
S'centre'
p938
sg515
I01
sg516
F2.3300000000000001
sg517
S'30594aa2-e51b-11e6-9631-e8b1fc98bbfb'
p939
sba(iclasses.clip
clip
p940
(dp941
g461
g462
sg463
I00
sg464
I00
sg465
(dp942
g467
(iclasses.keyframe
keyframe
p943
(dp944
g46
I0
sg47
F100
sg48
F100
sS'x'
F0
sS'y'
F0
sg49
F1
sg50
S'40d9e17b-e51b-11e6-9631-e8b1fc98bbfb'
p945
sbsg471
(iclasses.keyframe
keyframe
p946
(dp947
g46
I-1
sg47
F100
sg48
F100
sS'x'
F0
sS'y'
F0
sg49
F1
sg50
S'40d9e17c-e51b-11e6-9631-e8b1fc98bbfb'
p948
sbssg475
F2
sg476
I00
sg477
I00
sg478
F1
sg479
I01
sg480
F2
sg481
F84.641499999999994
sg482
F56.5
sg483
F4321.5
sg484
I01
sg485
F2
sg486
F300
sg172
I00
sg487
S'centre'
p949
sg489
I00
sg490
I00
sg491
I00
sg492
F2
sg493
g31
sg494
I01
sg495
F0
sg496
(iclasses.files
OpenShotFile
p950
(dp951
g83
F14999
sg84
S''
sg85
I0
sg86
S'/home/jeff/digital_media_class/Proj1_intro_vid/thumbnail/b0376b12-e519-11e6-9631-e8b1fc98bbfb_jpg_1.png'
p952
sg88
S'/home/jeff/digital_media_class/Proj1_intro_vid/pics/usmc/oki.jpg'
p953
sg90
Nsg91
g533
sg93
I0
sg47
I987
sg94
g1
sg48
I1176
sg95
F300
sg96
F29.970029970029969
sg97
I1
sg98
S''
sg99
(F29.970029970029969
I0
tp954
sg101
S''
sg50
S'b0376b13-e519-11e6-9631-e8b1fc98bbfb'
p955
sbsg503
I00
sg504
F100
sg505
(lp956
sg507
F0
sg508
I00
sg509
S'/home/jeff/digital_media_class/Proj1_intro_vid/thumbnail/b0376b12-e519-11e6-9631-e8b1fc98bbfb_jpg_1.png'
p957
sg511
S'oki.jpg'
p958
sg513
S'centre'
p959
sg515
I01
sg516
F2.0499999999999998
sg517
S'40d9e17a-e51b-11e6-9631-e8b1fc98bbfb'
p960
sba(iclasses.clip
clip
p961
(dp962
g461
g462
sg463
I00
sg464
I00
sg465
(dp963
g467
(iclasses.keyframe
keyframe
p964
(dp965
g46
I0
sg47
F100
sg48
F100
sS'x'
F0
sS'y'
F0
sg49
F1
sg50
S'85ac086f-e51b-11e6-9631-e8b1fc98bbfb'
p966
sbsg471
(iclasses.keyframe
keyframe
p967
(dp968
g46
I-1
sg47
F100
sg48
F100
sS'x'
F0
sS'y'
F0
sg49
F1
sg50
S'85ac0870-e51b-11e6-9631-e8b1fc98bbfb'
p969
sbssg475
F2
sg476
I00
sg477
I00
sg478
F1
sg479
I01
sg480
F2
sg481
F86.691499999999991
sg482
F29.5
sg483
F4511.5
sg484
I01
sg485
F2
sg486
F300
sg487
S'centre'
p970
sg489
I00
sg490
I00
sg491
I00
sg492
F2
sg493
g31
sg494
I01
sg495
F0
sg496
(iclasses.files
OpenShotFile
p971
(dp972
g83
F14999
sg84
S''
sg85
I0
sg86
S'/home/jeff/digital_media_class/Proj1_intro_vid/thumbnail/4513f427-e500-11e6-9631-e8b1fc98bbfb_png_1.png'
p973
sg88
S'/home/jeff/digital_media_class/Proj1_intro_vid/art/fun.png'
p974
sg90
Nsg91
g92
sg93
I0
sg47
I400
sg94
g1
sg48
I640
sg95
F300
sg96
F29.970029970029969
sg97
I1
sg98
S''
sg99
(F29.970029970029969
I0
tp975
sg101
S''
sg50
S'4513f428-e500-11e6-9631-e8b1fc98bbfb'
p976
sbsg503
I00
sg504
F100
sg505
(lp977
sg507
F0
sg508
I00
sg509
S'/home/jeff/digital_media_class/Proj1_intro_vid/thumbnail/4513f427-e500-11e6-9631-e8b1fc98bbfb_png_1.png'
p978
sg511
S'fun.png'
p979
sg513
S'centre'
p980
sg515
I01
sg516
F2
sg517
S'85ac086e-e51b-11e6-9631-e8b1fc98bbfb'
p981
sba(iclasses.clip
clip
p982
(dp983
g461
g462
sg463
I00
sg464
I00
sg465
(dp984
g467
(iclasses.keyframe
keyframe
p985
(dp986
g46
I0
sg47
F100
sg48
F100
sS'x'
F0
sS'y'
F0
sg49
F1
sg50
S'ba5a21d5-e51d-11e6-9631-e8b1fc98bbfb'
p987
sbsg471
(iclasses.keyframe
keyframe
p988
(dp989
g46
I-1
sg47
F100
sg48
F100
sS'x'
F0
sS'y'
F0
sg49
F1
sg50
S'ba5a21d6-e51d-11e6-9631-e8b1fc98bbfb'
p990
sbssg475
F2
sg476
I00
sg477
I00
sg478
F1
sg479
I01
sg480
F2
sg481
F88.691499999999991
sg482
F46.5
sg483
F761.92500000000018
sg484
I01
sg485
F2
sg486
F300
sg487
S'centre'
p991
sg489
I00
sg490
I00
sg491
I00
sg492
F2
sg493
g31
sg494
I01
sg495
F0
sg496
(iclasses.files
OpenShotFile
p992
(dp993
g83
F14999
sg84
S''
sg85
I0
sg86
S'/home/jeff/digital_media_class/Proj1_intro_vid/thumbnail/7c5491cd-e51d-11e6-9631-e8b1fc98bbfb_JPG_1.png'
p994
sg88
S'/home/jeff/digital_media_class/Proj1_intro_vid/pics/passions/IMG_5186.JPG'
p995
sg90
Nsg91
g533
sg93
I0
sg47
I576
sg94
g1
sg48
I720
sg95
F300
sg96
F29.970029970029969
sg97
I1
sg98
S''
sg99
(F29.970029970029969
I0
tp996
sg101
S''
sg50
S'7c5491ce-e51d-11e6-9631-e8b1fc98bbfb'
p997
sbsg503
I00
sg504
F100
sg505
(lp998
sg507
F0
sg508
I00
sg509
S'/home/jeff/digital_media_class/Proj1_intro_vid/thumbnail/7c5491cd-e51d-11e6-9631-e8b1fc98bbfb_JPG_1.png'
p999
sg511
S'IMG_5186.JPG'
p1000
sg513
S'centre'
p1001
sg515
I01
sg516
F2.1000000000000001
sg517
S'ba5a21d4-e51d-11e6-9631-e8b1fc98bbfb'
p1002
sba(iclasses.clip
clip
p1003
(dp1004
g461
g462
sg463
I00
sg464
I00
sg465
(dp1005
g467
(iclasses.keyframe
keyframe
p1006
(dp1007
g46
I0
sg47
F100
sg48
F100
sS'x'
F0
sS'y'
F0
sg49
F1
sg50
S'f55de36b-e51d-11e6-9631-e8b1fc98bbfb'
p1008
sbsg471
(iclasses.keyframe
keyframe
p1009
(dp1010
g46
I-1
sg47
F100
sg48
F100
sS'x'
F0
sS'y'
F0
sg49
F1
sg50
S'f55de36c-e51d-11e6-9631-e8b1fc98bbfb'
p1011
sbssg475
F2
sg476
I00
sg477
I00
sg478
F1
sg479
I01
sg480
F2
sg481
F90.791499999999999
sg482
F50.5
sg483
F645.92500000000018
sg484
I01
sg485
F2
sg486
F300
sg487
S'centre'
p1012
sg489
I00
sg490
I00
sg491
I00
sg492
F2
sg493
g31
sg494
I01
sg495
F0
sg496
(iclasses.files
OpenShotFile
p1013
(dp1014
g83
F14999
sg84
S''
sg85
I0
sg86
S'/home/jeff/digital_media_class/Proj1_intro_vid/thumbnail/7c5491d1-e51d-11e6-9631-e8b1fc98bbfb_jpg_1.png'
p1015
sg88
S'/home/jeff/digital_media_class/Proj1_intro_vid/pics/passions/MGR_9364.jpg'
p1016
sg90
Nsg91
g533
sg93
I0
sg47
I4288
sg94
g1
sg48
I2848
sg95
F300
sg96
F29.970029970029969
sg97
I1
sg98
S''
sg99
(F29.970029970029969
I0
tp1017
sg101
S''
sg50
S'7d489fb4-e51d-11e6-9631-e8b1fc98bbfb'
p1018
sbsg503
I00
sg504
F100
sg505
(lp1019
sg507
F0
sg508
I00
sg509
S'/home/jeff/digital_media_class/Proj1_intro_vid/thumbnail/7c5491d1-e51d-11e6-9631-e8b1fc98bbfb_jpg_1.png'
p1020
sg511
S'MGR_9364.jpg'
p1021
sg513
S'centre'
p1022
sg515
I01
sg516
F2.1000000000000001
sg517
S'f55de36a-e51d-11e6-9631-e8b1fc98bbfb'
p1023
sba(iclasses.clip
clip
p1024
(dp1025
g461
g462
sg463
I00
sg464
I00
sg465
(dp1026
g467
(iclasses.keyframe
keyframe
p1027
(dp1028
g46
I0
sg47
F100
sg48
F100
sS'x'
F0
sS'y'
F0
sg49
F1
sg50
S'0274c0ab-e51e-11e6-9631-e8b1fc98bbfb'
p1029
sbsg471
(iclasses.keyframe
keyframe
p1030
(dp1031
g46
I-1
sg47
F100
sg48
F100
sS'x'
F0
sS'y'
F0
sg49
F1
sg50
S'0274c0ac-e51e-11e6-9631-e8b1fc98bbfb'
p1032
sbssg475
F2
sg476
I00
sg477
I00
sg478
F1
sg479
I01
sg480
F2
sg481
F92.891499999999994
sg482
F45.5
sg483
F795.92500000000018
sg484
I01
sg485
F2
sg486
F300
sg487
S'centre'
p1033
sg489
I00
sg490
I00
sg491
I00
sg492
F2
sg493
g31
sg494
I01
sg495
F0
sg496
(iclasses.files
OpenShotFile
p1034
(dp1035
g83
F14999
sg84
S''
sg85
I0
sg86
S'/home/jeff/digital_media_class/Proj1_intro_vid/thumbnail/7d489fb5-e51d-11e6-9631-e8b1fc98bbfb_jpg_1.png'
p1036
sg88
S'/home/jeff/digital_media_class/Proj1_intro_vid/pics/passions/MGR_9578.jpg'
p1037
sg90
Nsg91
g533
sg93
I0
sg47
I4288
sg94
g1
sg48
I2848
sg95
F300
sg96
F29.970029970029969
sg97
I1
sg98
S''
sg99
(F29.970029970029969
I0
tp1038
sg101
S''
sg50
S'7d489fb6-e51d-11e6-9631-e8b1fc98bbfb'
p1039
sbsg503
I00
sg504
F100
sg505
(lp1040
sg507
F0
sg508
I00
sg509
S'/home/jeff/digital_media_class/Proj1_intro_vid/thumbnail/7d489fb5-e51d-11e6-9631-e8b1fc98bbfb_jpg_1.png'
p1041
sg511
S'MGR_9578.jpg'
p1042
sg513
S'centre'
p1043
sg515
I01
sg516
F2.1000000000000001
sg517
S'0274c0aa-e51e-11e6-9631-e8b1fc98bbfb'
p1044
sba(iclasses.clip
clip
p1045
(dp1046
g461
g462
sg463
I00
sg464
I00
sg465
(dp1047
g467
(iclasses.keyframe
keyframe
p1048
(dp1049
g46
I0
sg47
F100
sg48
F100
sS'x'
F0
sS'y'
F0
sg49
F1
sg50
S'0fee9c9d-e51e-11e6-9631-e8b1fc98bbfb'
p1050
sbsg471
(iclasses.keyframe
keyframe
p1051
(dp1052
g46
I-1
sg47
F100
sg48
F100
sS'x'
F0
sS'y'
F0
sg49
F1
sg50
S'0fee9c9e-e51e-11e6-9631-e8b1fc98bbfb'
p1053
sbssg475
F2
sg476
I00
sg477
I00
sg478
F1
sg479
I01
sg480
F2
sg481
F94.991500000000002
sg482
F48.5
sg483
F605.92500000000018
sg484
I01
sg485
F2
sg486
F300
sg487
S'centre'
p1054
sg489
I00
sg490
I00
sg491
I00
sg492
F2
sg493
g31
sg494
I01
sg495
F0
sg496
(iclasses.files
OpenShotFile
p1055
(dp1056
g83
F14999
sg84
S''
sg85
I0
sg86
S'/home/jeff/digital_media_class/Proj1_intro_vid/thumbnail/7d489fb7-e51d-11e6-9631-e8b1fc98bbfb_jpg_1.png'
p1057
sg88
S'/home/jeff/digital_media_class/Proj1_intro_vid/pics/passions/MGR_9582.jpg'
p1058
sg90
Nsg91
g533
sg93
I0
sg47
I2848
sg94
g1
sg48
I4288
sg95
F300
sg96
F29.970029970029969
sg97
I1
sg98
S''
sg99
(F29.970029970029969
I0
tp1059
sg101
S''
sg50
S'7d489fb8-e51d-11e6-9631-e8b1fc98bbfb'
p1060
sbsg503
I00
sg504
F100
sg505
(lp1061
sg507
F0
sg508
I00
sg509
S'/home/jeff/digital_media_class/Proj1_intro_vid/thumbnail/7d489fb7-e51d-11e6-9631-e8b1fc98bbfb_jpg_1.png'
p1062
sg511
S'MGR_9582.jpg'
p1063
sg513
S'centre'
p1064
sg515
I01
sg516
F2.1000000000000001
sg517
S'0fee9c9c-e51e-11e6-9631-e8b1fc98bbfb'
p1065
sba(iclasses.clip
clip
p1066
(dp1067
g461
g462
sg463
I00
sg464
I00
sg465
(dp1068
g467
(iclasses.keyframe
keyframe
p1069
(dp1070
g46
I0
sg47
F100
sg48
F100
sS'x'
F0
sS'y'
F0
sg49
F1
sg50
S'23a0b2c1-e51e-11e6-9631-e8b1fc98bbfb'
p1071
sbsg471
(iclasses.keyframe
keyframe
p1072
(dp1073
g46
I-1
sg47
F100
sg48
F100
sS'x'
F0
sS'y'
F0
sg49
F1
sg50
S'23a0b2c2-e51e-11e6-9631-e8b1fc98bbfb'
p1074
sbssg475
F2
sg476
I00
sg477
I00
sg478
F1
sg479
I01
sg480
F2
sg481
F97.091499999999996
sg482
F36.5
sg483
F938.92500000000018
sg484
I01
sg485
F2
sg486
F300
sg487
S'centre'
p1075
sg489
I00
sg490
I00
sg491
I00
sg492
F2
sg493
g31
sg494
I01
sg495
F0
sg496
(iclasses.files
OpenShotFile
p1076
(dp1077
g83
F14999
sg84
S''
sg85
I0
sg86
S'/home/jeff/digital_media_class/Proj1_intro_vid/thumbnail/7d489fb9-e51d-11e6-9631-e8b1fc98bbfb_JPG_1.png'
p1078
sg88
S'/home/jeff/digital_media_class/Proj1_intro_vid/pics/passions/SANY0272 (2).JPG'
p1079
sg90
Nsg91
g533
sg93
I0
sg47
I3216
sg94
g1
sg48
I4288
sg95
F300
sg96
F29.970029970029969
sg97
I1
sg98
S''
sg99
(F29.970029970029969
I0
tp1080
sg101
S''
sg50
S'7e877b7a-e51d-11e6-9631-e8b1fc98bbfb'
p1081
sbsg503
I00
sg504
F100
sg505
(lp1082
sg507
F0
sg508
I00
sg509
S'/home/jeff/digital_media_class/Proj1_intro_vid/thumbnail/7d489fb9-e51d-11e6-9631-e8b1fc98bbfb_JPG_1.png'
p1083
sg511
S'SANY0272 (2).JPG'
p1084
sg513
S'centre'
p1085
sg515
I01
sg516
F2.1000000000000001
sg517
S'23a0b2c0-e51e-11e6-9631-e8b1fc98bbfb'
p1086
sba(iclasses.clip
clip
p1087
(dp1088
g461
g462
sg463
I00
sg464
I00
sg465
(dp1089
g467
(iclasses.keyframe
keyframe
p1090
(dp1091
g46
I0
sg47
F100
sg48
F100
sS'x'
F0
sS'y'
F0
sg49
F1
sg50
S'2f78265b-e51e-11e6-9631-e8b1fc98bbfb'
p1092
sbsg471
(iclasses.keyframe
keyframe
p1093
(dp1094
g46
I-1
sg47
F100
sg48
F100
sS'x'
F0
sS'y'
F0
sg49
F1
sg50
S'2f78265c-e51e-11e6-9631-e8b1fc98bbfb'
p1095
sbssg475
F2
sg476
I00
sg477
I00
sg478
F1
sg479
I01
sg480
F2
sg481
F99.191499999999991
sg482
F53.5
sg483
F1112.9250000000002
sg484
I01
sg485
F2
sg486
F300
sg172
I00
sg487
S'centre'
p1096
sg489
I00
sg490
I00
sg491
I00
sg492
F2
sg493
g31
sg494
I01
sg495
F0
sg496
(iclasses.files
OpenShotFile
p1097
(dp1098
g83
F14999
sg84
S''
sg85
I0
sg86
S'/home/jeff/digital_media_class/Proj1_intro_vid/thumbnail/7c5491cf-e51d-11e6-9631-e8b1fc98bbfb_JPG_1.png'
p1099
sg88
S'/home/jeff/digital_media_class/Proj1_intro_vid/pics/passions/meandbbgirl.JPG'
p1100
sg90
Nsg91
g533
sg93
I0
sg47
I537
sg94
g1
sg48
I720
sg95
F300
sg96
F29.970029970029969
sg97
I1
sg98
S''
sg99
(F29.970029970029969
I0
tp1101
sg101
S''
sg50
S'7c5491d0-e51d-11e6-9631-e8b1fc98bbfb'
p1102
sbsg503
I00
sg504
F100
sg505
(lp1103
sg507
F0
sg508
I00
sg509
S'/home/jeff/digital_media_class/Proj1_intro_vid/thumbnail/7c5491cf-e51d-11e6-9631-e8b1fc98bbfb_JPG_1.png'
p1104
sg511
S'meandbbgirl.JPG'
p1105
sg513
S'centre'
p1106
sg515
I01
sg516
F2.1000000000000001
sg517
S'2f78265a-e51e-11e6-9631-e8b1fc98bbfb'
p1107
sba(iclasses.clip
clip
p1108
(dp1109
g461
g462
sg463
I00
sg464
I00
sg465
(dp1110
g467
(iclasses.keyframe
keyframe
p1111
(dp1112
g46
I0
sg47
F100
sg48
F100
sS'x'
F0
sS'y'
F0
sg49
F1
sg50
S'446d5cd9-e51e-11e6-9631-e8b1fc98bbfb'
p1113
sbsg471
(iclasses.keyframe
keyframe
p1114
(dp1115
g46
I-1
sg47
F100
sg48
F100
sS'x'
F0
sS'y'
F0
sg49
F1
sg50
S'446d5cda-e51e-11e6-9631-e8b1fc98bbfb'
p1116
sbssg475
F2
sg476
I00
sg477
I00
sg478
F1
sg479
I01
sg480
F2
sg481
F101.2915
sg482
F43.5
sg483
F1041.9250000000002
sg484
I01
sg485
F2
sg486
F300
sg172
I00
sg487
S'centre'
p1117
sg489
I00
sg490
I00
sg491
I00
sg492
F2
sg493
g31
sg494
I01
sg495
F0
sg496
(iclasses.files
OpenShotFile
p1118
(dp1119
g83
F14999
sg84
S''
sg85
I0
sg86
S'/home/jeff/digital_media_class/Proj1_intro_vid/thumbnail/7c5491ad-e51d-11e6-9631-e8b1fc98bbfb_jpg_1.png'
p1120
sg88
S'/home/jeff/digital_media_class/Proj1_intro_vid/pics/passions/130708779441466141.jpg'
p1121
sg90
Nsg91
g533
sg93
I0
sg47
I854
sg94
g1
sg48
I960
sg95
F300
sg96
F29.970029970029969
sg97
I1
sg98
S''
sg99
(F29.970029970029969
I0
tp1122
sg101
S''
sg50
S'7c5491ae-e51d-11e6-9631-e8b1fc98bbfb'
p1123
sbsg503
I00
sg504
F100
sg505
(lp1124
sg507
F0
sg508
I00
sg509
S'/home/jeff/digital_media_class/Proj1_intro_vid/thumbnail/7c5491ad-e51d-11e6-9631-e8b1fc98bbfb_jpg_1.png'
p1125
sg511
S'130708779441466141.jpg'
p1126
sg513
S'centre'
p1127
sg515
I01
sg516
F2.1000000000000001
sg517
S'446d5cd8-e51e-11e6-9631-e8b1fc98bbfb'
p1128
sba(iclasses.clip
clip
p1129
(dp1130
g461
g462
sg463
I00
sg464
I00
sg465
(dp1131
g467
(iclasses.keyframe
keyframe
p1132
(dp1133
g46
I0
sg47
F100
sg48
F100
sS'x'
F0
sS'y'
F0
sg49
F1
sg50
S'50c0cabb-e51e-11e6-9631-e8b1fc98bbfb'
p1134
sbsg471
(iclasses.keyframe
keyframe
p1135
(dp1136
g46
I-1
sg47
F100
sg48
F100
sS'x'
F0
sS'y'
F0
sg49
F1
sg50
S'50c0cabc-e51e-11e6-9631-e8b1fc98bbfb'
p1137
sbssg475
F2
sg476
I00
sg477
I00
sg478
F1
sg479
I01
sg480
F2
sg481
F103.39149999999999
sg482
F44.5
sg483
F1407.9250000000002
sg484
I01
sg485
F2
sg486
F300
sg487
S'centre'
p1138
sg489
I00
sg490
I00
sg491
I00
sg492
F2
sg493
g31
sg494
I01
sg495
F0
sg496
(iclasses.files
OpenShotFile
p1139
(dp1140
g83
F14999
sg84
S''
sg85
I0
sg86
S'/home/jeff/digital_media_class/Proj1_intro_vid/thumbnail/7c5491a9-e51d-11e6-9631-e8b1fc98bbfb_jpg_1.png'
p1141
sg88
S'/home/jeff/digital_media_class/Proj1_intro_vid/pics/passions/130708778108293986.jpg'
p1142
sg90
Nsg91
g533
sg93
I0
sg47
I854
sg94
g1
sg48
I960
sg95
F300
sg96
F29.970029970029969
sg97
I1
sg98
S''
sg99
(F29.970029970029969
I0
tp1143
sg101
S''
sg50
S'7c5491aa-e51d-11e6-9631-e8b1fc98bbfb'
p1144
sbsg503
I00
sg504
F100
sg505
(lp1145
sg507
F0
sg508
I00
sg509
S'/home/jeff/digital_media_class/Proj1_intro_vid/thumbnail/7c5491a9-e51d-11e6-9631-e8b1fc98bbfb_jpg_1.png'
p1146
sg511
S'130708778108293986.jpg'
p1147
sg513
S'centre'
p1148
sg515
I01
sg516
F2.1000000000000001
sg517
S'50c0caba-e51e-11e6-9631-e8b1fc98bbfb'
p1149
sba(iclasses.clip
clip
p1150
(dp1151
g461
g462
sg463
I00
sg464
I00
sg465
(dp1152
g467
(iclasses.keyframe
keyframe
p1153
(dp1154
g46
I0
sg47
F100
sg48
F100
sS'x'
F0
sS'y'
F0
sg49
F1
sg50
S'5ba3ba83-e51e-11e6-9631-e8b1fc98bbfb'
p1155
sbsg471
(iclasses.keyframe
keyframe
p1156
(dp1157
g46
I-1
sg47
F100
sg48
F100
sS'x'
F0
sS'y'
F0
sg49
F1
sg50
S'5ba3ba84-e51e-11e6-9631-e8b1fc98bbfb'
p1158
sbssg475
F2
sg476
I00
sg477
I00
sg478
F1
sg479
I01
sg480
F2
sg481
F105.4915
sg482
F44.5
sg483
F1558.9250000000002
sg484
I01
sg485
F2
sg486
F300
sg487
S'centre'
p1159
sg489
I00
sg490
I00
sg491
I00
sg492
F2
sg493
g31
sg494
I01
sg495
F0
sg496
(iclasses.files
OpenShotFile
p1160
(dp1161
g83
F14999
sg84
S''
sg85
I0
sg86
S'/home/jeff/digital_media_class/Proj1_intro_vid/thumbnail/7c5491ab-e51d-11e6-9631-e8b1fc98bbfb_jpg_1.png'
p1162
sg88
S'/home/jeff/digital_media_class/Proj1_intro_vid/pics/passions/130708779077494834.jpg'
p1163
sg90
Nsg91
g533
sg93
I0
sg47
I854
sg94
g1
sg48
I960
sg95
F300
sg96
F29.970029970029969
sg97
I1
sg98
S''
sg99
(F29.970029970029969
I0
tp1164
sg101
S''
sg50
S'7c5491ac-e51d-11e6-9631-e8b1fc98bbfb'
p1165
sbsg503
I00
sg504
F100
sg505
(lp1166
sg507
F0
sg508
I00
sg509
S'/home/jeff/digital_media_class/Proj1_intro_vid/thumbnail/7c5491ab-e51d-11e6-9631-e8b1fc98bbfb_jpg_1.png'
p1167
sg511
S'130708779077494834.jpg'
p1168
sg513
S'centre'
p1169
sg515
I01
sg516
F2.1000000000000001
sg517
S'5ba3ba82-e51e-11e6-9631-e8b1fc98bbfb'
p1170
sba(iclasses.clip
clip
p1171
(dp1172
g461
g462
sg463
I00
sg464
I00
sg465
(dp1173
g467
(iclasses.keyframe
keyframe
p1174
(dp1175
g46
I0
sg47
F100
sg48
F100
sS'x'
F0
sS'y'
F0
sg49
F1
sg50
S'6897f371-e51e-11e6-9631-e8b1fc98bbfb'
p1176
sbsg471
(iclasses.keyframe
keyframe
p1177
(dp1178
g46
I-1
sg47
F100
sg48
F100
sS'x'
F0
sS'y'
F0
sg49
F1
sg50
S'6897f372-e51e-11e6-9631-e8b1fc98bbfb'
p1179
sbssg475
F2
sg476
I00
sg477
I00
sg478
F1
sg479
I01
sg480
F2
sg481
F107.5915
sg482
F51.5
sg483
F5474.5
sg484
I01
sg485
F2
sg486
F300
sg487
S'centre'
p1180
sg489
I00
sg490
I00
sg491
I00
sg492
F2
sg493
g31
sg494
I01
sg495
F0
sg496
(iclasses.files
OpenShotFile
p1181
(dp1182
g83
F14999
sg84
S''
sg85
I0
sg86
S'/home/jeff/digital_media_class/Proj1_intro_vid/thumbnail/7c5491af-e51d-11e6-9631-e8b1fc98bbfb_jpg_1.png'
p1183
sg88
S'/home/jeff/digital_media_class/Proj1_intro_vid/pics/passions/130708779676246039.jpg'
p1184
sg90
Nsg91
g533
sg93
I0
sg47
I854
sg94
g1
sg48
I960
sg95
F300
sg96
F29.970029970029969
sg97
I1
sg98
S''
sg99
(F29.970029970029969
I0
tp1185
sg101
S''
sg50
S'7c5491b0-e51d-11e6-9631-e8b1fc98bbfb'
p1186
sbsg503
I00
sg504
F100
sg505
(lp1187
sg507
F0
sg508
I00
sg509
S'/home/jeff/digital_media_class/Proj1_intro_vid/thumbnail/7c5491af-e51d-11e6-9631-e8b1fc98bbfb_jpg_1.png'
p1188
sg511
S'130708779676246039.jpg'
p1189
sg513
S'centre'
p1190
sg515
I01
sg516
F2.2000000000000002
sg517
S'6897f370-e51e-11e6-9631-e8b1fc98bbfb'
p1191
sba(iclasses.clip
clip
p1192
(dp1193
g461
g462
sg463
I00
sg464
I00
sg465
(dp1194
g467
(iclasses.keyframe
keyframe
p1195
(dp1196
g46
I0
sg47
F100
sg48
F100
sS'x'
F0
sS'y'
F0
sg49
F1
sg50
S'953968ab-e51e-11e6-9631-e8b1fc98bbfb'
p1197
sbsg471
(iclasses.keyframe
keyframe
p1198
(dp1199
g46
I-1
sg47
F100
sg48
F100
sS'x'
F0
sS'y'
F0
sg49
F1
sg50
S'953968ac-e51e-11e6-9631-e8b1fc98bbfb'
p1200
sbssg475
F2
sg476
I00
sg477
I00
sg478
F1
sg479
I01
sg480
F2
sg481
F109.7915
sg482
F44.5
sg483
F5550.5
sg484
I01
sg485
F2
sg486
F300
sg487
S'centre'
p1201
sg489
I00
sg490
I00
sg491
I00
sg492
F2
sg493
g31
sg494
I01
sg495
F0
sg496
(iclasses.files
OpenShotFile
p1202
(dp1203
g83
F14999
sg84
S''
sg85
I0
sg86
S'/home/jeff/digital_media_class/Proj1_intro_vid/thumbnail/7c5491b7-e51d-11e6-9631-e8b1fc98bbfb_jpg_1.png'
p1204
sg88
S'/home/jeff/digital_media_class/Proj1_intro_vid/pics/passions/FB_IMG_1471197865658.jpg'
p1205
sg90
Nsg91
g533
sg93
I0
sg47
I713
sg94
g1
sg48
I714
sg95
F300
sg96
F29.970029970029969
sg97
I1
sg98
S''
sg99
(F29.970029970029969
I0
tp1206
sg101
S''
sg50
S'7c5491b8-e51d-11e6-9631-e8b1fc98bbfb'
p1207
sbsg503
I00
sg504
F100
sg505
(lp1208
sg507
F0
sg508
I00
sg509
S'/home/jeff/digital_media_class/Proj1_intro_vid/thumbnail/7c5491b7-e51d-11e6-9631-e8b1fc98bbfb_jpg_1.png'
p1209
sg511
S'FB_IMG_1471197865658.jpg'
p1210
sg513
S'centre'
p1211
sg515
I01
sg516
F2
sg517
S'953968aa-e51e-11e6-9631-e8b1fc98bbfb'
p1212
sba(iclasses.clip
clip
p1213
(dp1214
g461
g462
sg463
I00
sg464
I00
sg465
(dp1215
g467
(iclasses.keyframe
keyframe
p1216
(dp1217
g46
I0
sg47
F100
sg48
F100
sS'x'
F0
sS'y'
F0
sg49
F1
sg50
S'a307a1ff-e51e-11e6-9631-e8b1fc98bbfb'
p1218
sbsg471
(iclasses.keyframe
keyframe
p1219
(dp1220
g46
I-1
sg47
F100
sg48
F100
sS'x'
F0
sS'y'
F0
sg49
F1
sg50
S'a307a200-e51e-11e6-9631-e8b1fc98bbfb'
p1221
sbssg475
F2
sg476
I00
sg477
I00
sg478
F1
sg479
I01
sg480
F2
sg481
F111.7915
sg482
F49.5
sg483
F814.92500000000018
sg484
I01
sg485
F2
sg486
F300
sg487
S'centre'
p1222
sg489
I00
sg490
I00
sg491
I00
sg492
F2
sg493
g31
sg494
I01
sg495
F0
sg496
(iclasses.files
OpenShotFile
p1223
(dp1224
g83
F14999
sg84
S''
sg85
I0
sg86
S'/home/jeff/digital_media_class/Proj1_intro_vid/thumbnail/7c5491b9-e51d-11e6-9631-e8b1fc98bbfb_jpg_1.png'
p1225
sg88
S'/home/jeff/digital_media_class/Proj1_intro_vid/pics/passions/FB_IMG_1471198022276.jpg'
p1226
sg90
Nsg91
g533
sg93
I0
sg47
I720
sg94
g1
sg48
I721
sg95
F300
sg96
F29.970029970029969
sg97
I1
sg98
S''
sg99
(F29.970029970029969
I0
tp1227
sg101
S''
sg50
S'7c5491ba-e51d-11e6-9631-e8b1fc98bbfb'
p1228
sbsg503
I00
sg504
F100
sg505
(lp1229
sg507
F0
sg508
I00
sg509
S'/home/jeff/digital_media_class/Proj1_intro_vid/thumbnail/7c5491b9-e51d-11e6-9631-e8b1fc98bbfb_jpg_1.png'
p1230
sg511
S'FB_IMG_1471198022276.jpg'
p1231
sg513
S'centre'
p1232
sg515
I01
sg516
F2
sg517
S'a307a1fe-e51e-11e6-9631-e8b1fc98bbfb'
p1233
sba(iclasses.clip
clip
p1234
(dp1235
g461
g462
sg463
I00
sg464
I00
sg465
(dp1236
g467
(iclasses.keyframe
keyframe
p1237
(dp1238
g46
I0
sg47
F100
sg48
F100
sS'x'
F0
sS'y'
F0
sg49
F1
sg50
S'ac0f0923-e51e-11e6-9631-e8b1fc98bbfb'
p1239
sbsg471
(iclasses.keyframe
keyframe
p1240
(dp1241
g46
I-1
sg47
F100
sg48
F100
sS'x'
F0
sS'y'
F0
sg49
F1
sg50
S'ac0f0924-e51e-11e6-9631-e8b1fc98bbfb'
p1242
sbssg475
F2
sg476
I00
sg477
I00
sg478
F1
sg479
I01
sg480
F2
sg481
F113.7915
sg482
F49.5
sg483
F820.92500000000018
sg484
I01
sg485
F2
sg486
F300
sg487
S'centre'
p1243
sg489
I00
sg490
I00
sg491
I00
sg492
F2
sg493
g31
sg494
I01
sg495
F0
sg496
(iclasses.files
OpenShotFile
p1244
(dp1245
g83
F14999
sg84
S''
sg85
I0
sg86
S'/home/jeff/digital_media_class/Proj1_intro_vid/thumbnail/7c5491bb-e51d-11e6-9631-e8b1fc98bbfb_jpg_1.png'
p1246
sg88
S'/home/jeff/digital_media_class/Proj1_intro_vid/pics/passions/FB_IMG_1471198026204.jpg'
p1247
sg90
Nsg91
g533
sg93
I0
sg47
I720
sg94
g1
sg48
I960
sg95
F300
sg96
F29.970029970029969
sg97
I1
sg98
S''
sg99
(F29.970029970029969
I0
tp1248
sg101
S''
sg50
S'7c5491bc-e51d-11e6-9631-e8b1fc98bbfb'
p1249
sbsg503
I00
sg504
F100
sg505
(lp1250
sg507
F0
sg508
I00
sg509
S'/home/jeff/digital_media_class/Proj1_intro_vid/thumbnail/7c5491bb-e51d-11e6-9631-e8b1fc98bbfb_jpg_1.png'
p1251
sg511
S'FB_IMG_1471198026204.jpg'
p1252
sg513
S'centre'
p1253
sg515
I01
sg516
F2
sg517
S'ac0f0922-e51e-11e6-9631-e8b1fc98bbfb'
p1254
sba(iclasses.clip
clip
p1255
(dp1256
g461
g462
sg463
I00
sg464
I00
sg465
(dp1257
g467
(iclasses.keyframe
keyframe
p1258
(dp1259
g46
I0
sg47
F100
sg48
F100
sS'x'
F0
sS'y'
F0
sg49
F1
sg50
S'b5b2a2af-e51e-11e6-9631-e8b1fc98bbfb'
p1260
sbsg471
(iclasses.keyframe
keyframe
p1261
(dp1262
g46
I-1
sg47
F100
sg48
F100
sS'x'
F0
sS'y'
F0
sg49
F1
sg50
S'b5b2a2b0-e51e-11e6-9631-e8b1fc98bbfb'
p1263
sbssg475
F2
sg476
I00
sg477
I00
sg478
F1
sg479
I01
sg480
F2
sg481
F115.7915
sg482
F54.5
sg483
F1034.9250000000002
sg484
I01
sg485
F2
sg486
F300
sg487
S'centre'
p1264
sg489
I00
sg490
I00
sg491
I00
sg492
F2
sg493
g31
sg494
I01
sg495
F0
sg496
(iclasses.files
OpenShotFile
p1265
(dp1266
g83
F14999
sg84
S''
sg85
I0
sg86
S'/home/jeff/digital_media_class/Proj1_intro_vid/thumbnail/7c5491bd-e51d-11e6-9631-e8b1fc98bbfb_jpg_1.png'
p1267
sg88
S'/home/jeff/digital_media_class/Proj1_intro_vid/pics/passions/FB_IMG_1471198035733.jpg'
p1268
sg90
Nsg91
g533
sg93
I0
sg47
I720
sg94
g1
sg48
I960
sg95
F300
sg96
F29.970029970029969
sg97
I1
sg98
S''
sg99
(F29.970029970029969
I0
tp1269
sg101
S''
sg50
S'7c5491be-e51d-11e6-9631-e8b1fc98bbfb'
p1270
sbsg503
I00
sg504
F100
sg505
(lp1271
sg507
F0
sg508
I00
sg509
S'/home/jeff/digital_media_class/Proj1_intro_vid/thumbnail/7c5491bd-e51d-11e6-9631-e8b1fc98bbfb_jpg_1.png'
p1272
sg511
S'FB_IMG_1471198035733.jpg'
p1273
sg513
S'centre'
p1274
sg515
I01
sg516
F2
sg517
S'b5b2a2ae-e51e-11e6-9631-e8b1fc98bbfb'
p1275
sba(iclasses.clip
clip
p1276
(dp1277
g461
g462
sg463
I00
sg464
I00
sg465
(dp1278
g467
(iclasses.keyframe
keyframe
p1279
(dp1280
g46
I0
sg47
F100
sg48
F100
sS'x'
F0
sS'y'
F0
sg49
F1
sg50
S'be87bc5d-e51e-11e6-9631-e8b1fc98bbfb'
p1281
sbsg471
(iclasses.keyframe
keyframe
p1282
(dp1283
g46
I-1
sg47
F100
sg48
F100
sS'x'
F0
sS'y'
F0
sg49
F1
sg50
S'be87bc5e-e51e-11e6-9631-e8b1fc98bbfb'
p1284
sbssg475
F2
sg476
I00
sg477
I00
sg478
F1
sg479
I01
sg480
F2
sg481
F117.7915
sg482
F47.5
sg483
F1312.9250000000002
sg484
I01
sg485
F2
sg486
F300
sg487
S'centre'
p1285
sg489
I00
sg490
I00
sg491
I00
sg492
F2
sg493
g31
sg494
I01
sg495
F0
sg496
(iclasses.files
OpenShotFile
p1286
(dp1287
g83
F14999
sg84
S''
sg85
I0
sg86
S'/home/jeff/digital_media_class/Proj1_intro_vid/thumbnail/7c5491bf-e51d-11e6-9631-e8b1fc98bbfb_jpg_1.png'
p1288
sg88
S'/home/jeff/digital_media_class/Proj1_intro_vid/pics/passions/FB_IMG_1471198043840.jpg'
p1289
sg90
Nsg91
g533
sg93
I0
sg47
I720
sg94
g1
sg48
I960
sg95
F300
sg96
F29.970029970029969
sg97
I1
sg98
S''
sg99
(F29.970029970029969
I0
tp1290
sg101
S''
sg50
S'7c5491c0-e51d-11e6-9631-e8b1fc98bbfb'
p1291
sbsg503
I00
sg504
F100
sg505
(lp1292
sg507
F0
sg508
I00
sg509
S'/home/jeff/digital_media_class/Proj1_intro_vid/thumbnail/7c5491bf-e51d-11e6-9631-e8b1fc98bbfb_jpg_1.png'
p1293
sg511
S'FB_IMG_1471198043840.jpg'
p1294
sg513
S'centre'
p1295
sg515
I01
sg516
F2
sg517
S'be87bc5c-e51e-11e6-9631-e8b1fc98bbfb'
p1296
sba(iclasses.clip
clip
p1297
(dp1298
g461
g462
sg463
I00
sg464
I00
sg465
(dp1299
g467
(iclasses.keyframe
keyframe
p1300
(dp1301
g46
I0
sg47
F100
sg48
F100
sS'x'
F0
sS'y'
F0
sg49
F1
sg50
S'c624dd29-e51e-11e6-9631-e8b1fc98bbfb'
p1302
sbsg471
(iclasses.keyframe
keyframe
p1303
(dp1304
g46
I-1
sg47
F100
sg48
F100
sS'x'
F0
sS'y'
F0
sg49
F1
sg50
S'c624dd2a-e51e-11e6-9631-e8b1fc98bbfb'
p1305
sbssg475
F2
sg476
I00
sg477
I00
sg478
F1
sg479
I01
sg480
F2
sg481
F119.7915
sg482
F44.5
sg483
F767.92500000000018
sg484
I01
sg485
F2
sg486
F300
sg487
S'centre'
p1306
sg489
I00
sg490
I00
sg491
I00
sg492
F2
sg493
g31
sg494
I01
sg495
F0
sg496
(iclasses.files
OpenShotFile
p1307
(dp1308
g83
F14999
sg84
S''
sg85
I0
sg86
S'/home/jeff/digital_media_class/Proj1_intro_vid/thumbnail/7c5491c1-e51d-11e6-9631-e8b1fc98bbfb_jpg_1.png'
p1309
sg88
S'/home/jeff/digital_media_class/Proj1_intro_vid/pics/passions/FB_IMG_1471198050780.jpg'
p1310
sg90
Nsg91
g533
sg93
I0
sg47
I720
sg94
g1
sg48
I960
sg95
F300
sg96
F29.970029970029969
sg97
I1
sg98
S''
sg99
(F29.970029970029969
I0
tp1311
sg101
S''
sg50
S'7c5491c2-e51d-11e6-9631-e8b1fc98bbfb'
p1312
sbsg503
I00
sg504
F100
sg505
(lp1313
sg507
F0
sg508
I00
sg509
S'/home/jeff/digital_media_class/Proj1_intro_vid/thumbnail/7c5491c1-e51d-11e6-9631-e8b1fc98bbfb_jpg_1.png'
p1314
sg511
S'FB_IMG_1471198050780.jpg'
p1315
sg513
S'centre'
p1316
sg515
I01
sg516
F2
sg517
S'c624dd28-e51e-11e6-9631-e8b1fc98bbfb'
p1317
sba(iclasses.clip
clip
p1318
(dp1319
g461
g462
sg463
I00
sg464
I00
sg465
(dp1320
g467
(iclasses.keyframe
keyframe
p1321
(dp1322
g46
I0
sg47
F100
sg48
F100
sS'x'
F0
sS'y'
F0
sg49
F1
sg50
S'd1187f83-e51e-11e6-9631-e8b1fc98bbfb'
p1323
sbsg471
(iclasses.keyframe
keyframe
p1324
(dp1325
g46
I-1
sg47
F100
sg48
F100
sS'x'
F0
sS'y'
F0
sg49
F1
sg50
S'd1187f84-e51e-11e6-9631-e8b1fc98bbfb'
p1326
sbssg475
F2
sg476
I00
sg477
I00
sg478
F1
sg479
I01
sg480
F2
sg481
F121.7915
sg482
F49.5
sg483
F1148.9250000000002
sg484
I01
sg485
F2
sg486
F300
sg487
S'centre'
p1327
sg489
I00
sg490
I00
sg491
I00
sg492
F2
sg493
g31
sg494
I01
sg495
F0
sg496
(iclasses.files
OpenShotFile
p1328
(dp1329
g83
F14999
sg84
S''
sg85
I0
sg86
S'/home/jeff/digital_media_class/Proj1_intro_vid/thumbnail/7c5491c3-e51d-11e6-9631-e8b1fc98bbfb_jpg_1.png'
p1330
sg88
S'/home/jeff/digital_media_class/Proj1_intro_vid/pics/passions/FB_IMG_1471198112717.jpg'
p1331
sg90
Nsg91
g533
sg93
I0
sg47
I717
sg94
g1
sg48
I718
sg95
F300
sg96
F29.970029970029969
sg97
I1
sg98
S''
sg99
(F29.970029970029969
I0
tp1332
sg101
S''
sg50
S'7c5491c4-e51d-11e6-9631-e8b1fc98bbfb'
p1333
sbsg503
I00
sg504
F100
sg505
(lp1334
sg507
F0
sg508
I00
sg509
S'/home/jeff/digital_media_class/Proj1_intro_vid/thumbnail/7c5491c3-e51d-11e6-9631-e8b1fc98bbfb_jpg_1.png'
p1335
sg511
S'FB_IMG_1471198112717.jpg'
p1336
sg513
S'centre'
p1337
sg515
I01
sg516
F2
sg517
S'd1187f82-e51e-11e6-9631-e8b1fc98bbfb'
p1338
sba(iclasses.clip
clip
p1339
(dp1340
g461
g462
sg463
I00
sg464
I00
sg465
(dp1341
g467
(iclasses.keyframe
keyframe
p1342
(dp1343
g46
I0
sg47
F100
sg48
F100
sS'x'
F0
sS'y'
F0
sg49
F1
sg50
S'e2ac6327-e51e-11e6-9631-e8b1fc98bbfb'
p1344
sbsg471
(iclasses.keyframe
keyframe
p1345
(dp1346
g46
I-1
sg47
F100
sg48
F100
sS'x'
F0
sS'y'
F0
sg49
F1
sg50
S'e2ac6328-e51e-11e6-9631-e8b1fc98bbfb'
p1347
sbssg475
F2
sg476
I00
sg477
I00
sg478
F1
sg479
I01
sg480
F2
sg481
F123.7915
sg482
F42.5
sg483
F791.92500000000018
sg484
I01
sg485
F2
sg486
F300
sg487
S'centre'
p1348
sg489
I00
sg490
I00
sg491
I00
sg492
F2
sg493
g31
sg494
I01
sg495
F0
sg496
(iclasses.files
OpenShotFile
p1349
(dp1350
g83
F14999
sg84
S''
sg85
I0
sg86
S'/home/jeff/digital_media_class/Proj1_intro_vid/thumbnail/7c5491c5-e51d-11e6-9631-e8b1fc98bbfb_jpg_1.png'
p1351
sg88
S'/home/jeff/digital_media_class/Proj1_intro_vid/pics/passions/FB_IMG_1471198122102.jpg'
p1352
sg90
Nsg91
g533
sg93
I0
sg47
I721
sg94
g1
sg48
I722
sg95
F300
sg96
F29.970029970029969
sg97
I1
sg98
S''
sg99
(F29.970029970029969
I0
tp1353
sg101
S''
sg50
S'7c5491c6-e51d-11e6-9631-e8b1fc98bbfb'
p1354
sbsg503
I00
sg504
F100
sg505
(lp1355
sg507
F0
sg508
I00
sg509
S'/home/jeff/digital_media_class/Proj1_intro_vid/thumbnail/7c5491c5-e51d-11e6-9631-e8b1fc98bbfb_jpg_1.png'
p1356
sg511
S'FB_IMG_1471198122102.jpg'
p1357
sg513
S'centre'
p1358
sg515
I01
sg516
F2
sg517
S'e2ac6326-e51e-11e6-9631-e8b1fc98bbfb'
p1359
sba(iclasses.clip
clip
p1360
(dp1361
g461
g462
sg463
I00
sg464
I00
sg465
(dp1362
g467
(iclasses.keyframe
keyframe
p1363
(dp1364
g46
I0
sg47
F100
sg48
F100
sS'x'
F0
sS'y'
F0
sg49
F1
sg50
S'ebfec663-e51e-11e6-9631-e8b1fc98bbfb'
p1365
sbsg471
(iclasses.keyframe
keyframe
p1366
(dp1367
g46
I-1
sg47
F100
sg48
F100
sS'x'
F0
sS'y'
F0
sg49
F1
sg50
S'ebfec664-e51e-11e6-9631-e8b1fc98bbfb'
p1368
sbssg475
F2
sg476
I00
sg477
I00
sg478
F1
sg479
I01
sg480
F2
sg481
F125.7915
sg482
F49.5
sg483
F850.92500000000018
sg484
I01
sg485
F2
sg486
F300
sg487
S'centre'
p1369
sg489
I00
sg490
I00
sg491
I00
sg492
F2
sg493
g31
sg494
I01
sg495
F0
sg496
(iclasses.files
OpenShotFile
p1370
(dp1371
g83
F14999
sg84
S''
sg85
I0
sg86
S'/home/jeff/digital_media_class/Proj1_intro_vid/thumbnail/7c5491c7-e51d-11e6-9631-e8b1fc98bbfb_jpg_1.png'
p1372
sg88
S'/home/jeff/digital_media_class/Proj1_intro_vid/pics/passions/FB_IMG_1471198129003.jpg'
p1373
sg90
Nsg91
g533
sg93
I0
sg47
I720
sg94
g1
sg48
I960
sg95
F300
sg96
F29.970029970029969
sg97
I1
sg98
S''
sg99
(F29.970029970029969
I0
tp1374
sg101
S''
sg50
S'7c5491c8-e51d-11e6-9631-e8b1fc98bbfb'
p1375
sbsg503
I00
sg504
F100
sg505
(lp1376
sg507
F0
sg508
I00
sg509
S'/home/jeff/digital_media_class/Proj1_intro_vid/thumbnail/7c5491c7-e51d-11e6-9631-e8b1fc98bbfb_jpg_1.png'
p1377
sg511
S'FB_IMG_1471198129003.jpg'
p1378
sg513
S'centre'
p1379
sg515
I01
sg516
F2
sg517
S'ebfec662-e51e-11e6-9631-e8b1fc98bbfb'
p1380
sba(iclasses.clip
clip
p1381
(dp1382
g461
g462
sg463
I00
sg464
I00
sg465
(dp1383
g467
(iclasses.keyframe
keyframe
p1384
(dp1385
g46
I0
sg47
F100
sg48
F100
sS'x'
F0
sS'y'
F0
sg49
F1
sg50
S'f602ee7d-e51e-11e6-9631-e8b1fc98bbfb'
p1386
sbsg471
(iclasses.keyframe
keyframe
p1387
(dp1388
g46
I-1
sg47
F100
sg48
F100
sS'x'
F0
sS'y'
F0
sg49
F1
sg50
S'f602ee7e-e51e-11e6-9631-e8b1fc98bbfb'
p1389
sbssg475
F2
sg476
I00
sg477
I00
sg478
F1
sg479
I01
sg480
F2
sg481
F127.7915
sg482
F51.5
sg483
F945.92500000000018
sg484
I01
sg485
F2
sg486
F300
sg487
S'centre'
p1390
sg489
I00
sg490
I00
sg491
I00
sg492
F2
sg493
g31
sg494
I01
sg495
F0
sg496
(iclasses.files
OpenShotFile
p1391
(dp1392
g83
F14999
sg84
S''
sg85
I0
sg86
S'/home/jeff/digital_media_class/Proj1_intro_vid/thumbnail/7c5491c9-e51d-11e6-9631-e8b1fc98bbfb_jpg_1.png'
p1393
sg88
S'/home/jeff/digital_media_class/Proj1_intro_vid/pics/passions/FB_IMG_1471198149434.jpg'
p1394
sg90
Nsg91
g533
sg93
I0
sg47
I720
sg94
g1
sg48
I960
sg95
F300
sg96
F29.970029970029969
sg97
I1
sg98
S''
sg99
(F29.970029970029969
I0
tp1395
sg101
S''
sg50
S'7c5491ca-e51d-11e6-9631-e8b1fc98bbfb'
p1396
sbsg503
I00
sg504
F100
sg505
(lp1397
sg507
F0
sg508
I00
sg509
S'/home/jeff/digital_media_class/Proj1_intro_vid/thumbnail/7c5491c9-e51d-11e6-9631-e8b1fc98bbfb_jpg_1.png'
p1398
sg511
S'FB_IMG_1471198149434.jpg'
p1399
sg513
S'centre'
p1400
sg515
I01
sg516
F2
sg517
S'f602ee7c-e51e-11e6-9631-e8b1fc98bbfb'
p1401
sba(iclasses.clip
clip
p1402
(dp1403
g461
g462
sg463
I00
sg464
I00
sg465
(dp1404
g467
(iclasses.keyframe
keyframe
p1405
(dp1406
g46
I0
sg47
F100
sg48
F100
sS'x'
F0
sS'y'
F0
sg49
F1
sg50
S'00e116a3-e51f-11e6-9631-e8b1fc98bbfb'
p1407
sbsg471
(iclasses.keyframe
keyframe
p1408
(dp1409
g46
I-1
sg47
F100
sg48
F100
sS'x'
F0
sS'y'
F0
sg49
F1
sg50
S'00e116a4-e51f-11e6-9631-e8b1fc98bbfb'
p1410
sbssg475
F2
sg476
I00
sg477
I00
sg478
F1
sg479
I01
sg480
F2
sg481
F129.79149999999998
sg482
F53.5
sg483
F570.92500000000018
sg484
I01
sg485
F2
sg486
F300
sg487
S'centre'
p1411
sg489
I00
sg490
I00
sg491
I00
sg492
F2
sg493
g31
sg494
I01
sg495
F0
sg496
(iclasses.files
OpenShotFile
p1412
(dp1413
g83
F14999
sg84
S''
sg85
I0
sg86
S'/home/jeff/digital_media_class/Proj1_intro_vid/thumbnail/7c5491cb-e51d-11e6-9631-e8b1fc98bbfb_jpg_1.png'
p1414
sg88
S'/home/jeff/digital_media_class/Proj1_intro_vid/pics/passions/FB_IMG_1471198155503.jpg'
p1415
sg90
Nsg91
g533
sg93
I0
sg47
I720
sg94
g1
sg48
I719
sg95
F300
sg96
F29.970029970029969
sg97
I1
sg98
S''
sg99
(F29.970029970029969
I0
tp1416
sg101
S''
sg50
S'7c5491cc-e51d-11e6-9631-e8b1fc98bbfb'
p1417
sbsg503
I00
sg504
F100
sg505
(lp1418
sg507
F0
sg508
I00
sg509
S'/home/jeff/digital_media_class/Proj1_intro_vid/thumbnail/7c5491cb-e51d-11e6-9631-e8b1fc98bbfb_jpg_1.png'
p1419
sg511
S'FB_IMG_1471198155503.jpg'
p1420
sg513
S'centre'
p1421
sg515
I01
sg516
F2
sg517
S'00e116a2-e51f-11e6-9631-e8b1fc98bbfb'
p1422
sba(iclasses.clip
clip
p1423
(dp1424
g461
g462
sg463
I00
sg464
I00
sg465
(dp1425
g467
(iclasses.keyframe
keyframe
p1426
(dp1427
g46
I0
sg47
F100
sg48
F100
sS'x'
F0
sS'y'
F0
sg49
F1
sg50
S'0c69d609-e51f-11e6-9631-e8b1fc98bbfb'
p1428
sbsg471
(iclasses.keyframe
keyframe
p1429
(dp1430
g46
I-1
sg47
F100
sg48
F100
sS'x'
F0
sS'y'
F0
sg49
F1
sg50
S'0c69d60a-e51f-11e6-9631-e8b1fc98bbfb'
p1431
sbssg475
F2
sg476
I00
sg477
I00
sg478
F1
sg479
I01
sg480
F2
sg481
F131.79149999999998
sg482
F53.5
sg483
F993.92500000000109
sg484
I01
sg485
F2
sg486
F300
sg487
S'centre'
p1432
sg489
I00
sg490
I00
sg491
I00
sg492
F2
sg493
g31
sg494
I01
sg495
F0
sg496
(iclasses.files
OpenShotFile
p1433
(dp1434
g83
F14999
sg84
S''
sg85
I0
sg86
S'/home/jeff/digital_media_class/Proj1_intro_vid/thumbnail/7e877b7f-e51d-11e6-9631-e8b1fc98bbfb_jpg_1.png'
p1435
sg88
S'/home/jeff/digital_media_class/Proj1_intro_vid/pics/passions/WP_20150607_001.jpg'
p1436
sg90
Nsg91
g533
sg93
I0
sg47
I719
sg94
g1
sg48
I719
sg95
F300
sg96
F29.970029970029969
sg97
I1
sg98
S''
sg99
(F29.970029970029969
I0
tp1437
sg101
S''
sg50
S'7e877b80-e51d-11e6-9631-e8b1fc98bbfb'
p1438
sbsg503
I00
sg504
F100
sg505
(lp1439
sg507
F0
sg508
I00
sg509
S'/home/jeff/digital_media_class/Proj1_intro_vid/thumbnail/7e877b7f-e51d-11e6-9631-e8b1fc98bbfb_jpg_1.png'
p1440
sg511
S'WP_20150607_001.jpg'
p1441
sg513
S'centre'
p1442
sg515
I01
sg516
F2
sg517
S'0c69d608-e51f-11e6-9631-e8b1fc98bbfb'
p1443
sba(iclasses.clip
clip
p1444
(dp1445
g461
g462
sg463
I00
sg464
I00
sg465
(dp1446
g467
(iclasses.keyframe
keyframe
p1447
(dp1448
g46
I0
sg47
F100
sg48
F100
sS'x'
F0
sS'y'
F0
sg49
F1
sg50
S'2242b38d-e51f-11e6-9631-e8b1fc98bbfb'
p1449
sbsg471
(iclasses.keyframe
keyframe
p1450
(dp1451
g46
I-1
sg47
F100
sg48
F100
sS'x'
F0
sS'y'
F0
sg49
F1
sg50
S'2242b38e-e51f-11e6-9631-e8b1fc98bbfb'
p1452
sbssg475
F2
sg476
I00
sg477
I00
sg478
F1
sg479
I01
sg480
F2
sg481
F133.79149999999998
sg482
F47.5
sg483
F794.92500000000109
sg484
I01
sg485
F2
sg486
F300
sg487
S'centre'
p1453
sg489
I00
sg490
I00
sg491
I00
sg492
F2
sg493
g31
sg494
I01
sg495
F0
sg496
(iclasses.files
OpenShotFile
p1454
(dp1455
g83
F14999
sg84
S''
sg85
I0
sg86
S'/home/jeff/digital_media_class/Proj1_intro_vid/thumbnail/7b584f46-e51d-11e6-9631-e8b1fc98bbfb_jpg_1.png'
p1456
sg88
S'/home/jeff/digital_media_class/Proj1_intro_vid/pics/passions/20160817_164158.jpg'
p1457
sg90
Nsg91
g533
sg93
I0
sg47
I4032
sg94
g1
sg48
I3024
sg95
F300
sg96
F29.970029970029969
sg97
I1
sg98
S''
sg99
(F29.970029970029969
I0
tp1458
sg101
S''
sg50
S'7c5491a8-e51d-11e6-9631-e8b1fc98bbfb'
p1459
sbsg503
I00
sg504
F100
sg505
(lp1460
sg507
F0
sg508
I00
sg509
S'/home/jeff/digital_media_class/Proj1_intro_vid/thumbnail/7b584f46-e51d-11e6-9631-e8b1fc98bbfb_jpg_1.png'
p1461
sg511
S'20160817_164158.jpg'
p1462
sg513
S'centre'
p1463
sg515
I01
sg516
F2
sg517
S'2242b38c-e51f-11e6-9631-e8b1fc98bbfb'
p1464
sba(iclasses.clip
clip
p1465
(dp1466
g461
g462
sg463
I00
sg464
I00
sg465
(dp1467
g467
(iclasses.keyframe
keyframe
p1468
(dp1469
g46
I0
sg47
F100
sg48
F100
sS'x'
F0
sS'y'
F0
sg49
F1
sg50
S'2dab4cf3-e51f-11e6-9631-e8b1fc98bbfb'
p1470
sbsg471
(iclasses.keyframe
keyframe
p1471
(dp1472
g46
I-1
sg47
F100
sg48
F100
sS'x'
F0
sS'y'
F0
sg49
F1
sg50
S'2dab4cf4-e51f-11e6-9631-e8b1fc98bbfb'
p1473
sbssg475
F2
sg476
I00
sg477
I00
sg478
F1
sg479
I01
sg480
F2
sg481
F135.79149999999998
sg482
F54.5
sg483
F1363.9250000000011
sg484
I01
sg485
F2
sg486
F300
sg487
S'centre'
p1474
sg489
I00
sg490
I00
sg491
I00
sg492
F2
sg493
g31
sg494
I01
sg495
F0
sg496
(iclasses.files
OpenShotFile
p1475
(dp1476
g83
F14999
sg84
S''
sg85
I0
sg86
S'/home/jeff/digital_media_class/Proj1_intro_vid/thumbnail/7b584f42-e51d-11e6-9631-e8b1fc98bbfb_jpg_1.png'
p1477
sg88
S'/home/jeff/digital_media_class/Proj1_intro_vid/pics/passions/20160602_155727.jpg'
p1478
sg90
Nsg91
g533
sg93
I0
sg47
I2937
sg94
g1
sg48
I2938
sg95
F300
sg96
F29.970029970029969
sg97
I1
sg98
S''
sg99
(F29.970029970029969
I0
tp1479
sg101
S''
sg50
S'7b584f43-e51d-11e6-9631-e8b1fc98bbfb'
p1480
sbsg503
I00
sg504
F100
sg505
(lp1481
sg507
F0
sg508
I00
sg509
S'/home/jeff/digital_media_class/Proj1_intro_vid/thumbnail/7b584f42-e51d-11e6-9631-e8b1fc98bbfb_jpg_1.png'
p1482
sg511
S'20160602_155727.jpg'
p1483
sg513
S'centre'
p1484
sg515
I01
sg516
F2
sg517
S'2dab4cf2-e51f-11e6-9631-e8b1fc98bbfb'
p1485
sba(iclasses.clip
clip
p1486
(dp1487
g461
g462
sg463
I00
sg464
I00
sg465
(dp1488
g467
(iclasses.keyframe
keyframe
p1489
(dp1490
g46
I0
sg47
F100
sg48
F100
sS'x'
F0
sS'y'
F0
sg49
F1
sg50
S'362bbf6b-e51f-11e6-9631-e8b1fc98bbfb'
p1491
sbsg471
(iclasses.keyframe
keyframe
p1492
(dp1493
g46
I-1
sg47
F100
sg48
F100
sS'x'
F0
sS'y'
F0
sg49
F1
sg50
S'362bbf6c-e51f-11e6-9631-e8b1fc98bbfb'
p1494
sbssg475
F2
sg476
I00
sg477
I00
sg478
F1
sg479
I01
sg480
F2
sg481
F137.79149999999998
sg482
F54.5
sg483
F6973.5
sg484
I01
sg485
F2
sg486
F300
sg172
I00
sg487
S'centre'
p1495
sg489
I00
sg490
I00
sg491
I00
sg492
F2
sg493
g31
sg494
I01
sg495
F0
sg496
(iclasses.files
OpenShotFile
p1496
(dp1497
g83
F14999
sg84
S''
sg85
I0
sg86
S'/home/jeff/digital_media_class/Proj1_intro_vid/thumbnail/7b584f44-e51d-11e6-9631-e8b1fc98bbfb_jpg_1.png'
p1498
sg88
S'/home/jeff/digital_media_class/Proj1_intro_vid/pics/passions/20160602_233805.jpg'
p1499
sg90
Nsg91
g533
sg93
I0
sg47
I2888
sg94
g1
sg48
I2888
sg95
F300
sg96
F29.970029970029969
sg97
I1
sg98
S''
sg99
(F29.970029970029969
I0
tp1500
sg101
S''
sg50
S'7b584f45-e51d-11e6-9631-e8b1fc98bbfb'
p1501
sbsg503
I00
sg504
F100
sg505
(lp1502
sg507
F0
sg508
I00
sg509
S'/home/jeff/digital_media_class/Proj1_intro_vid/thumbnail/7b584f44-e51d-11e6-9631-e8b1fc98bbfb_jpg_1.png'
p1503
sg511
S'20160602_233805.jpg'
p1504
sg513
S'centre'
p1505
sg515
I01
sg516
F2.25
sg517
S'362bbf6a-e51f-11e6-9631-e8b1fc98bbfb'
p1506
sba(iclasses.clip
clip
p1507
(dp1508
g461
g462
sg463
I01
sg464
I00
sg465
(dp1509
g467
(iclasses.keyframe
keyframe
p1510
(dp1511
g46
I0
sg47
F100
sg48
F100
sS'x'
F0
sS'y'
F0
sg49
F1
sg50
S'4d3e657d-e51f-11e6-9631-e8b1fc98bbfb'
p1512
sbsg471
(iclasses.keyframe
keyframe
p1513
(dp1514
g46
I-1
sg47
F100
sg48
F100
sS'x'
F0
sS'y'
F0
sg49
F1
sg50
S'4d3e657e-e51f-11e6-9631-e8b1fc98bbfb'
p1515
sbssg475
F2
sg476
I00
sg477
I00
sg478
F1
sg479
I01
sg480
F2
sg481
F140.04149999999998
sg482
F55.5
sg483
F7060.5
sg484
I01
sg485
F2
sg486
F300
sg172
I00
sg487
S'centre'
p1516
sg489
I00
sg490
I00
sg491
I00
sg492
F2
sg493
g31
sg494
I01
sg495
F0
sg496
(iclasses.files
OpenShotFile
p1517
(dp1518
g83
F14999
sg84
S''
sg85
I0
sg86
S'/home/jeff/digital_media_class/Proj1_intro_vid/thumbnail/4513f42d-e500-11e6-9631-e8b1fc98bbfb_png_1.png'
p1519
sg88
S'/home/jeff/digital_media_class/Proj1_intro_vid/art/now.png'
p1520
sg90
Nsg91
g92
sg93
I0
sg47
I400
sg94
g1
sg48
I640
sg95
F300
sg96
F29.970029970029969
sg97
I1
sg98
S''
sg99
(F29.970029970029969
I0
tp1521
sg101
S''
sg50
S'4513f42e-e500-11e6-9631-e8b1fc98bbfb'
p1522
sbsg503
I00
sg504
F100
sg505
(lp1523
sg507
F0
sg508
I00
sg509
S'/home/jeff/digital_media_class/Proj1_intro_vid/thumbnail/4513f42d-e500-11e6-9631-e8b1fc98bbfb_png_1.png'
p1524
sg511
S'now.png'
p1525
sg513
S'centre'
p1526
sg515
I01
sg516
F2
sg517
S'4d3e657c-e51f-11e6-9631-e8b1fc98bbfb'
p1527
sba(iclasses.clip
clip
p1528
(dp1529
g461
g462
sg463
I00
sg464
I00
sg465
(dp1530
g467
(iclasses.keyframe
keyframe
p1531
(dp1532
g48
F100
sg49
F1
sS'y'
F0
sS'x'
F0
sg46
I0
sg50
S'a87b264f-e521-11e6-9631-e8b1fc98bbfb'
p1533
sg47
F100
sbsg471
(iclasses.keyframe
keyframe
p1534
(dp1535
g48
F100
sg49
F1
sS'y'
F0
sS'x'
F0
sg46
I-1
sg50
S'a87b2650-e521-11e6-9631-e8b1fc98bbfb'
p1536
sg47
F100
sbssg475
F2
sg476
I00
sg477
I00
sg478
F1
sg479
I01
sg480
F2
sg481
F142.04149999999998
sg482
F46.5
sg483
F7181.5
sg484
I01
sg485
F2
sg486
F300
sg172
I01
sg487
S'centre'
p1537
sg489
I00
sg490
I00
sg491
I00
sg492
F2
sg493
g31
sg494
I01
sg495
F0
sg496
(iclasses.files
OpenShotFile
p1538
(dp1539
g83
F14999
sg84
S''
sg85
I0
sg86
S'/home/jeff/digital_media_class/Proj1_intro_vid/thumbnail/7e877b7d-e51d-11e6-9631-e8b1fc98bbfb_png_1.png'
p1540
sg88
S'/home/jeff/digital_media_class/Proj1_intro_vid/pics/passions/terminal.png'
p1541
sg90
Nsg91
g533
sg93
I0
sg47
I1017
sg94
g1
sg48
I826
sg95
F300
sg96
F29.970029970029969
sg97
I1
sg98
S''
sg99
(F29.970029970029969
I0
tp1542
sg101
S''
sg50
S'7e877b7e-e51d-11e6-9631-e8b1fc98bbfb'
p1543
sbsg503
I00
sg504
F100
sg505
(lp1544
sg507
F0
sg508
I00
sg509
S'/home/jeff/digital_media_class/Proj1_intro_vid/thumbnail/7e877b7d-e51d-11e6-9631-e8b1fc98bbfb_png_1.png'
p1545
sg511
S'terminal.png'
p1546
sg351
I0
sg513
S'centre'
p1547
sg515
I01
sg516
F2
sg517
S'a87b264e-e521-11e6-9631-e8b1fc98bbfb'
p1548
sba(iclasses.clip
clip
p1549
(dp1550
g461
g462
sg463
I01
sg464
I00
sg465
(dp1551
g467
(iclasses.keyframe
keyframe
p1552
(dp1553
g48
F100
sg49
F1
sS'y'
F0
sS'x'
F0
sg46
I0
sg50
S'b8bd86bf-e521-11e6-9631-e8b1fc98bbfb'
p1554
sg47
F100
sbsg471
(iclasses.keyframe
keyframe
p1555
(dp1556
g48
F100
sg49
F1
sS'y'
F0
sS'x'
F0
sg46
I-1
sg50
S'b8bd86c0-e521-11e6-9631-e8b1fc98bbfb'
p1557
sg47
F100
sbssg475
F2
sg476
I00
sg477
I00
sg478
F1
sg479
I01
sg480
F2
sg481
F144.04149999999998
sg482
F48.5
sg483
F7291.5
sg484
I01
sg485
F2
sg486
F300
sg172
I00
sg487
S'centre'
p1558
sg489
I00
sg490
I00
sg491
I00
sg492
F2
sg493
g31
sg494
I01
sg495
F0
sg496
(iclasses.files
OpenShotFile
p1559
(dp1560
g83
F14999
sg84
S''
sg85
I0
sg86
S'/home/jeff/digital_media_class/Proj1_intro_vid/thumbnail/7c5491b3-e51d-11e6-9631-e8b1fc98bbfb_png_1.png'
p1561
sg88
S'/home/jeff/digital_media_class/Proj1_intro_vid/pics/passions/code.png'
p1562
sg90
Nsg91
g533
sg93
I0
sg47
I754
sg94
g1
sg48
I726
sg95
F300
sg96
F29.970029970029969
sg97
I1
sg98
S''
sg99
(F29.970029970029969
I0
tp1563
sg101
S''
sg50
S'7c5491b4-e51d-11e6-9631-e8b1fc98bbfb'
p1564
sbsg503
I00
sg504
F100
sg505
(lp1565
sg507
F0
sg508
I00
sg509
S'/home/jeff/digital_media_class/Proj1_intro_vid/thumbnail/7c5491b3-e51d-11e6-9631-e8b1fc98bbfb_png_1.png'
p1566
sg511
S'code.png'
p1567
sg513
S'centre'
p1568
sg515
I01
sg516
F2
sg517
S'b8bd86be-e521-11e6-9631-e8b1fc98bbfb'
p1569
sba(iclasses.clip
clip
p1570
(dp1571
g461
g462
sg463
I01
sg464
I00
sg465
(dp1572
g467
(iclasses.keyframe
keyframe
p1573
(dp1574
g48
F100
sg49
F1
sS'y'
F0
sS'x'
F0
sg46
I0
sg50
S'c657a2dd-e521-11e6-9631-e8b1fc98bbfb'
p1575
sg47
F100
sbsg471
(iclasses.keyframe
keyframe
p1576
(dp1577
g48
F100
sg49
F1
sS'y'
F0
sS'x'
F0
sg46
I-1
sg50
S'c657a2de-e521-11e6-9631-e8b1fc98bbfb'
p1578
sg47
F100
sbssg475
F2
sg476
I00
sg477
I00
sg478
F1
sg479
I01
sg480
F2
sg481
F146.04149999999998
sg482
F57.5
sg483
F7407.5
sg484
I01
sg485
F2
sg486
F300
sS'show_preview'
p1579
I00
sg487
S'centre'
p1580
sg489
I00
sg490
I00
sg491
I00
sg492
F2
sg493
g31
sg494
I01
sg495
F0
sg496
(iclasses.files
OpenShotFile
p1581
(dp1582
g83
F14999
sg84
S''
sg85
I0
sg86
S'/home/jeff/digital_media_class/Proj1_intro_vid/thumbnail/7c5491b5-e51d-11e6-9631-e8b1fc98bbfb_jpg_1.png'
p1583
sg88
S'/home/jeff/digital_media_class/Proj1_intro_vid/pics/passions/desk.jpg'
p1584
sg90
Nsg91
g533
sg93
I0
sg47
I1440
sg94
g1
sg48
I2560
sg95
F300
sg96
F29.970029970029969
sg97
I1
sg98
S''
sg99
(F29.970029970029969
I0
tp1585
sg101
S''
sg50
S'7c5491b6-e51d-11e6-9631-e8b1fc98bbfb'
p1586
sbsg503
I00
sg504
F100
sg505
(lp1587
sg507
F0
sg508
I00
sg509
S'/home/jeff/digital_media_class/Proj1_intro_vid/thumbnail/7c5491b5-e51d-11e6-9631-e8b1fc98bbfb_jpg_1.png'
p1588
sg511
S'desk.jpg'
p1589
sg513
S'centre'
p1590
sg515
I01
sg516
F2
sg517
S'c657a2dc-e521-11e6-9631-e8b1fc98bbfb'
p1591
sba(iclasses.clip
clip
p1592
(dp1593
g461
g462
sg463
I01
sg464
I00
sg465
(dp1594
g467
(iclasses.keyframe
keyframe
p1595
(dp1596
g48
F100
sg49
F1
sS'y'
F0
sS'x'
F0
sg46
I0
sg50
S'd1d7de43-e521-11e6-9631-e8b1fc98bbfb'
p1597
sg47
F100
sbsg471
(iclasses.keyframe
keyframe
p1598
(dp1599
g48
F100
sg49
F1
sS'y'
F0
sS'x'
F0
sg46
I-1
sg50
S'd1d7de44-e521-11e6-9631-e8b1fc98bbfb'
p1600
sg47
F100
sbssg475
F2
sg476
I00
sg477
I00
sg478
F1
sg479
I01
sg480
F2
sg481
F148.04149999999998
sg482
F52.5
sg483
F7542.5
sg484
I01
sg485
F2
sg486
F300
sg172
I00
sg487
S'centre'
p1601
sg489
I00
sg490
I00
sg491
I00
sg492
F2
sg493
g31
sg494
I01
sg495
F0
sg496
(iclasses.files
OpenShotFile
p1602
(dp1603
g83
F14999
sg84
S''
sg85
I0
sg86
S'/home/jeff/digital_media_class/Proj1_intro_vid/thumbnail/7c5491b1-e51d-11e6-9631-e8b1fc98bbfb_png_1.png'
p1604
sg88
S'/home/jeff/digital_media_class/Proj1_intro_vid/pics/passions/atom.png'
p1605
sg90
Nsg91
g533
sg93
I0
sg47
I1024
sg94
g1
sg48
I1402
sg95
F300
sg96
F29.970029970029969
sg97
I1
sg98
S''
sg99
(F29.970029970029969
I0
tp1606
sg101
S''
sg50
S'7c5491b2-e51d-11e6-9631-e8b1fc98bbfb'
p1607
sbsg503
I00
sg504
F100
sg505
(lp1608
sg507
F0
sg508
I00
sg509
S'/home/jeff/digital_media_class/Proj1_intro_vid/thumbnail/7c5491b1-e51d-11e6-9631-e8b1fc98bbfb_png_1.png'
p1609
sg511
S'atom.png'
p1610
sg513
S'centre'
p1611
sg515
I01
sg516
F2
sg517
S'd1d7de42-e521-11e6-9631-e8b1fc98bbfb'
p1612
sba(iclasses.clip
clip
p1613
(dp1614
g461
g462
sg463
I01
sg464
I00
sg465
(dp1615
g467
(iclasses.keyframe
keyframe
p1616
(dp1617
g46
I0
sg47
F100
sg48
F100
sS'x'
F0
sS'y'
F0
sg49
F1
sg50
S'ddeaafb7-e521-11e6-9631-e8b1fc98bbfb'
p1618
sbsg471
(iclasses.keyframe
keyframe
p1619
(dp1620
g46
I-1
sg47
F100
sg48
F100
sS'x'
F0
sS'y'
F0
sg49
F1
sg50
S'ddeaafb8-e521-11e6-9631-e8b1fc98bbfb'
p1621
sbssg475
F2
sg476
I00
sg477
I00
sg478
F1
sg479
I01
sg480
F2
sg481
F150.04149999999998
sg482
F53.5
sg483
F7671.5
sg484
I01
sg485
F2
sg486
F300
sg1579
I00
sg487
S'centre'
p1622
sg489
I00
sg490
I00
sg491
I00
sg492
F2
sg493
g31
sg494
I01
sg495
F0
sg496
(iclasses.files
OpenShotFile
p1623
(dp1624
g83
F14999
sg84
S''
sg85
I0
sg86
S'/home/jeff/digital_media_class/Proj1_intro_vid/thumbnail/7e877b7b-e51d-11e6-9631-e8b1fc98bbfb_png_1.png'
p1625
sg88
S'/home/jeff/digital_media_class/Proj1_intro_vid/pics/passions/sig-game.png'
p1626
sg90
Nsg91
g533
sg93
I0
sg47
I1026
sg94
g1
sg48
I1203
sg95
F300
sg96
F29.970029970029969
sg97
I1
sg98
S''
sg99
(F29.970029970029969
I0
tp1627
sg101
S''
sg50
S'7e877b7c-e51d-11e6-9631-e8b1fc98bbfb'
p1628
sbsg503
I00
sg504
F100
sg505
(lp1629
sg507
F0
sg508
I00
sg509
S'/home/jeff/digital_media_class/Proj1_intro_vid/thumbnail/7e877b7b-e51d-11e6-9631-e8b1fc98bbfb_png_1.png'
p1630
sg511
S'sig-game.png'
p1631
sg513
S'centre'
p1632
sg515
I01
sg516
F1.75
sg517
S'ddeaafb6-e521-11e6-9631-e8b1fc98bbfb'
p1633
sba(iclasses.clip
clip
p1634
(dp1635
S'color'
p1636
S'Gold'
p1637
sS'reversed'
p1638
I00
sS'video_fade_out'
p1639
I00
sS'keyframes'
p1640
(dp1641
S'start'
p1642
(iclasses.keyframe
keyframe
p1643
(dp1644
g48
F100
sg49
F1
sS'y'
F0
sS'x'
F0
sg46
I0
sg50
S'6af342a3-e52b-11e6-83c8-e8b1fc98bbfb'
p1645
sg47
F100
sbsS'end'
p1646
(iclasses.keyframe
keyframe
p1647
(dp1648
g48
F100
sg49
F1
sS'y'
F0
sS'x'
F0
sg46
I-1
sg50
S'6af342a4-e52b-11e6-83c8-e8b1fc98bbfb'
p1649
sg47
F100
sbssS'video_fade_out_amount'
p1650
F2
sS'audio_fade_out'
p1651
I00
sS'speed'
p1652
F1
sS'fill'
p1653
I01
sS'audio_fade_in_amount'
p1654
F2
sS'position_on_track'
p1655
F151.79149999999998
sS'drag_y'
p1656
F44.5
sS'drag_x'
p1657
F616.92500000000109
sS'play_audio'
p1658
I01
sS'audio_fade_out_amount'
p1659
F2
sS'max_length'
p1660
F300
sS'valign'
p1661
S'centre'
p1662
sS'video_fade_in'
p1663
I00
sS'audio_fade_in'
p1664
I00
sS'request_show_properties'
p1665
I00
sS'video_fade_in_amount'
p1666
F2
sg90
g31
sS'composite'
p1667
I01
sS'moved'
p1668
I00
sS'start_time'
p1669
F0
sS'file_object'
p1670
(iclasses.files
OpenShotFile
p1671
(dp1672
g83
F14999
sg84
S''
sg85
I0
sg86
S'/home/jeff/digital_media_class/Proj1_intro_vid/thumbnail/68605e08-e52b-11e6-83c8-e8b1fc98bbfb_png_1.png'
p1673
sg88
S'/home/jeff/digital_media_class/Proj1_intro_vid/art/end.png'
p1674
sg90
Nsg91
S'image'
p1675
sg93
I0
sg47
I400
sg94
g1
sg48
I640
sg95
F300
sg96
F29.970029970029969
sg97
I1
sg98
S''
sg99
(F29.970029970029969
I0
tp1676
sg101
S''
sg50
S'68605e09-e52b-11e6-83c8-e8b1fc98bbfb'
p1677
sbsS'distort'
p1678
I00
sS'volume'
p1679
F100
sS'effects'
p1680
(lp1681
sS'rotation'
p1682
F0
sS'is_timeline_scrolling'
p1683
I00
sg86
S'/home/jeff/digital_media_class/Proj1_intro_vid/thumbnail/68605e08-e52b-11e6-83c8-e8b1fc98bbfb_png_1.png'
p1684
sg88
S'end.png'
p1685
sS'halign'
p1686
S'centre'
p1687
sS'play_video'
p1688
I01
sS'end_time'
p1689
F2
sg50
S'6af342a2-e52b-11e6-83c8-e8b1fc98bbfb'
p1690
sbasg88
S'Track 2'
p1691
sg90
g20
sg1658
I01
sS'y_top'
p1692
I6
sg1688
I01
sS'y_bottom'
p1693
I65
sS'x'
I10
sS'transitions'
p1694
(lp1695
(iclasses.transition
transition
p1696
(dp1697
g90
g31
sS'resource'
p1698
S'/usr/share/openshot/openshot/transitions/fractal_2.png'
p1699
sg88
S'Fractal 2'
p1700
sg1655
F152.25
sg1656
F67.5
sg1657
F7669.5
sS'stored_x'
p1701
F0
sg95
F1.5
sS'mask_value'
p1702
F50
sS'softness'
p1703
F0.29999999999999999
sS'type'
p1704
S'transition'
p1705
sg50
S'79010fc8-e52b-11e6-83c8-e8b1fc98bbfb'
p1706
sS'reverse'
p1707
I00
sbasg50
S'98c1a7a5-e4ff-11e6-9631-e8b1fc98bbfb'
p1708
sba(iclasses.track
track
p1709
(dp1710
g33
(lp1711
(iclasses.clip
clip
p1712
(dp1713
g461
g462
sg463
I00
sg464
I00
sg465
(dp1714
g467
(iclasses.keyframe
keyframe
p1715
(dp1716
g46
I0
sg47
F100
sg48
F100
sS'x'
F0
sS'y'
F0
sg49
F1
sg50
S'1fb07b15-e50f-11e6-9631-e8b1fc98bbfb'
p1717
sbsg471
(iclasses.keyframe
keyframe
p1718
(dp1719
g46
I-1
sg47
F100
sg48
F100
sS'x'
F0
sS'y'
F0
sg49
F1
sg50
S'1fb07b16-e50f-11e6-9631-e8b1fc98bbfb'
p1720
sbssg475
F2
sg476
I01
sg477
I00
sg478
F1
sg479
I01
sg480
F2
sg481
F0
sg482
F37.5
sg483
F1794.5
sg484
I01
sg485
F1
sg486
F36.002633333333335
sg487
S'centre'
p1721
sg489
I00
sg490
I00
sg491
I00
sg492
F2
sg493
g1709
sg494
I01
sg495
F0
sg496
(iclasses.files
OpenShotFile
p1722
(dp1723
g83
F1078
sg84
S'MP3 (MPEG audio layer 3)'
p1724
sg85
I0
sg86
S'/home/jeff/digital_media_class/Proj1_intro_vid/thumbnail/1da386c2-e50f-11e6-9631-e8b1fc98bbfb_mp3_1.png'
p1725
sg88
S"/home/jeff/digital_media_class/Proj1_intro_vid/sound/01 - Pachelbel's Canon in D.mp3"
p1726
sg90
Nsg91
S'audio'
p1727
sg93
I0
sg47
I0
sg94
g1
sg48
I0
sg95
F36.002633333333335
sg96
F29.970029970029969
sg97
I1
sg98
S''
sg99
(F29.970029970029969
I0
tp1728
sg101
S''
sg50
S'1da386c3-e50f-11e6-9631-e8b1fc98bbfb'
p1729
sbsg503
I00
sg504
F100
sg505
(lp1730
sg507
F0
sg508
I00
sg509
S''
sg511
S"01 - Pachelbel's Canon in D.mp3"
p1731
sg513
S'centre'
p1732
sg515
I01
sg516
F36
sg517
S'1fb07b14-e50f-11e6-9631-e8b1fc98bbfb'
p1733
sba(iclasses.clip
clip
p1734
(dp1735
g461
g462
sg463
I00
sg464
I00
sg465
(dp1736
g467
(iclasses.keyframe
keyframe
p1737
(dp1738
g46
I0
sg47
F100
sg48
F100
sS'x'
F0
sS'y'
F0
sg49
F1
sg50
S'06408797-e519-11e6-9631-e8b1fc98bbfb'
p1739
sbsg471
(iclasses.keyframe
keyframe
p1740
(dp1741
g46
I-1
sg47
F100
sg48
F100
sS'x'
F0
sS'y'
F0
sg49
F1
sg50
S'06408798-e519-11e6-9631-e8b1fc98bbfb'
p1742
sbssg475
F2
sg476
I01
sg477
I00
sg478
F1
sg479
I01
sg480
F2
sg481
F36
sg482
F93.5
sg483
F1914.5
sg484
I01
sg485
F1
sg486
F35.035000000000004
sg487
S'centre'
p1743
sg489
I00
sg490
I00
sg491
I00
sg492
F2
sg493
g1709
sg494
I01
sg495
F0
sg496
(iclasses.files
OpenShotFile
p1744
(dp1745
g83
F1049
sg84
S'MP3 (MPEG audio layer 3)'
p1746
sg85
I0
sg86
S'/home/jeff/digital_media_class/Proj1_intro_vid/thumbnail/02759138-e519-11e6-9631-e8b1fc98bbfb_mp3_1.png'
p1747
sg88
S'/home/jeff/digital_media_class/Proj1_intro_vid/sound/06 - Sweet Emotion.mp3'
p1748
sg90
Nsg91
g1727
sg93
I0
sg47
I0
sg94
g1
sg48
I0
sg95
F35.035000000000004
sg96
F29.970029970029969
sg97
I1
sg98
S''
sg99
(F29.970029970029969
I0
tp1749
sg101
S''
sg50
S'02759139-e519-11e6-9631-e8b1fc98bbfb'
p1750
sbsg503
I00
sg504
F100
sg505
(lp1751
sg507
F0
sg508
I00
sg509
S''
sg511
S'06 - Sweet Emotion.mp3'
p1752
sg513
S'centre'
p1753
sg515
I01
sg516
F35.039999999999999
sg517
S'06408796-e519-11e6-9631-e8b1fc98bbfb'
p1754
sba(iclasses.clip
clip
p1755
(dp1756
g461
g462
sg463
I00
sg464
I00
sg465
(dp1757
g467
(iclasses.keyframe
keyframe
p1758
(dp1759
g46
I0
sg47
F100
sg48
F100
sS'x'
F0
sS'y'
F0
sg49
F1
sg50
S'd0a05507-e51a-11e6-9631-e8b1fc98bbfb'
p1760
sbsg471
(iclasses.keyframe
keyframe
p1761
(dp1762
g46
I-1
sg47
F100
sg48
F100
sS'x'
F0
sS'y'
F0
sg49
F1
sg50
S'd0a05508-e51a-11e6-9631-e8b1fc98bbfb'
p1763
sbssg475
F2
sg476
I00
sg477
I00
sg478
F1
sg479
I01
sg480
F2
sg481
F71.040000000000006
sg482
F41.5
sg483
F1607.5
sg484
I01
sg485
F2
sg486
F15.648966666666666
sg487
S'centre'
p1764
sg489
I00
sg490
I00
sg491
I00
sg492
F2
sg493
g1709
sg494
I01
sg495
F0
sg496
(iclasses.files
OpenShotFile
p1765
(dp1766
g83
F468
sg84
S'MP3 (MPEG audio layer 3)'
p1767
sg85
I0
sg86
S'/home/jeff/digital_media_class/Proj1_intro_vid/thumbnail/cead86a6-e51a-11e6-9631-e8b1fc98bbfb_mp3_1.png'
p1768
sg88
S'/home/jeff/digital_media_class/Proj1_intro_vid/sound/MarinesHymn.mp3'
p1769
sg90
Nsg91
g1727
sg93
I0
sg47
I0
sg94
g1
sg48
I0
sg95
F15.648966666666666
sg96
F29.970029970029969
sg97
I1
sg98
S''
sg99
(F29.970029970029969
I0
tp1770
sg101
S''
sg50
S'cead86a7-e51a-11e6-9631-e8b1fc98bbfb'
p1771
sbsg503
I00
sg504
F100
sg505
(lp1772
sg507
F0
sg508
I00
sg509
S''
sg511
S'MarinesHymn.mp3'
p1773
sg513
g1764
sg515
I01
sg516
F15.648966666666666
sg517
S'd0a05506-e51a-11e6-9631-e8b1fc98bbfb'
p1774
sba(iclasses.clip
clip
p1775
(dp1776
g461
g462
sg463
I00
sg464
I00
sg465
(dp1777
g467
(iclasses.keyframe
keyframe
p1778
(dp1779
g46
I0
sg47
F100
sg48
F100
sS'x'
F0
sS'y'
F0
sg49
F1
sg50
S'd4eab36b-e51d-11e6-9631-e8b1fc98bbfb'
p1780
sbsg471
(iclasses.keyframe
keyframe
p1781
(dp1782
g46
I-1
sg47
F100
sg48
F100
sS'x'
F0
sS'y'
F0
sg49
F1
sg50
S'd4eab36c-e51d-11e6-9631-e8b1fc98bbfb'
p1783
sbssg475
F2
sg476
I00
sg477
I00
sg478
F1
sg479
I01
sg480
F2
sg481
F86.688966666666673
sg482
F42.5
sg483
F578.05166666666628
sg484
I01
sg485
F2
sg486
F23.123100000000001
sg172
I01
sg487
g1764
sg489
I00
sg490
I00
sg491
I00
sg492
F2
sg493
g1709
sg494
I01
sg495
F0
sg496
(iclasses.files
OpenShotFile
p1784
(dp1785
g83
F692
sg84
S'MP3 (MPEG audio layer 3)'
p1786
sg85
I0
sg86
S'/home/jeff/digital_media_class/Proj1_intro_vid/thumbnail/8b52d1f2-e51c-11e6-9631-e8b1fc98bbfb_mp3_1.png'
p1787
sg88
S'/home/jeff/digital_media_class/Proj1_intro_vid/sound/Thunderstruck.mp3'
p1788
sg90
Nsg91
g1727
sg93
I0
sg47
I0
sg94
g1
sg48
I0
sg95
F23.123100000000001
sg96
F29.970029970029969
sg97
I1
sg98
S''
sg99
(F29.970029970029969
I0
tp1789
sg101
S''
sg50
S'8b52d1f3-e51c-11e6-9631-e8b1fc98bbfb'
p1790
sbsg503
I00
sg504
F100
sg505
(lp1791
sg507
F0
sg508
I00
sg509
S''
sg511
S'Thunderstruck.mp3'
p1792
sg351
I0
sg513
g1764
sg515
I01
sg516
F23.123100000000001
sg517
S'd4eab36a-e51d-11e6-9631-e8b1fc98bbfb'
p1793
sba(iclasses.clip
clip
p1794
(dp1795
g461
g462
sg463
I00
sg464
I00
sg465
(dp1796
g467
(iclasses.keyframe
keyframe
p1797
(dp1798
g46
I0
sg47
F100
sg48
F100
sS'x'
F0
sS'y'
F0
sg49
F1
sg50
S'84a53e45-e521-11e6-9631-e8b1fc98bbfb'
p1799
sbsg471
(iclasses.keyframe
keyframe
p1800
(dp1801
g46
I-1
sg47
F100
sg48
F100
sS'x'
F0
sS'y'
F0
sg49
F1
sg50
S'84a53e46-e521-11e6-9631-e8b1fc98bbfb'
p1802
sbssg475
F2
sg476
I00
sg477
I00
sg478
F1
sg479
I01
sg480
F2
sg481
F109.81206666666667
sg482
F0
sg483
F0
sg484
I01
sg485
F2
sg486
F30.2302
sg487
g1764
sg489
I00
sg490
I00
sg492
F2
sg493
g1709
sg494
I01
sg495
F0
sg496
(iclasses.files
OpenShotFile
p1803
(dp1804
g83
F905
sg84
S'MP3 (MPEG audio layer 3)'
p1805
sg85
I0
sg86
S'/home/jeff/digital_media_class/Proj1_intro_vid/thumbnail/831080a2-e521-11e6-9631-e8b1fc98bbfb_mp3_1.png'
p1806
sg88
S'/home/jeff/digital_media_class/Proj1_intro_vid/sound/Tom_Sawyer.mp3'
p1807
sg90
Nsg91
g1727
sg93
I0
sg47
I0
sg94
g1
sg48
I0
sg95
F30.2302
sg96
F29.970029970029969
sg97
I1
sg98
S''
sg99
(F29.970029970029969
I0
tp1808
sg101
S''
sg50
S'831080a3-e521-11e6-9631-e8b1fc98bbfb'
p1809
sbsg503
I00
sg504
F100
sg505
(lp1810
sg507
F0
sg508
I00
sg509
S''
sg511
S'Tom_Sawyer.mp3'
p1811
sg513
g1764
sg515
I01
sg516
F30.2302
sg517
S'84a53e44-e521-11e6-9631-e8b1fc98bbfb'
p1812
sba(iclasses.clip
clip
p1813
(dp1814
g461
g462
sg463
I00
sg464
I00
sg465
(dp1815
g467
(iclasses.keyframe
keyframe
p1816
(dp1817
g46
I0
sg47
F100
sg48
F100
sS'x'
F0
sS'y'
F0
sg49
F1
sg50
S'c312e569-e522-11e6-9631-e8b1fc98bbfb'
p1818
sbsg471
(iclasses.keyframe
keyframe
p1819
(dp1820
g46
I-1
sg47
F100
sg48
F100
sS'x'
F0
sS'y'
F0
sg49
F1
sg50
S'c312e56a-e522-11e6-9631-e8b1fc98bbfb'
p1821
sbssg475
F2
sg476
I00
sg477
I00
sg478
F1
sg479
I01
sg480
F2
sg481
F140.04226666666668
sg482
F0
sg483
F0
sg484
I01
sg485
F2
sg486
F13.713700000000001
sg487
g1764
sg489
I00
sg490
I00
sg492
F2
sg493
g1709
sg494
I01
sg495
F0
sg496
(iclasses.files
OpenShotFile
p1822
(dp1823
g83
F410
sg84
S'MP3 (MPEG audio layer 3)'
p1824
sg85
I0
sg86
S'/home/jeff/digital_media_class/Proj1_intro_vid/thumbnail/c02f4ac6-e522-11e6-9631-e8b1fc98bbfb_mp3_1.png'
p1825
sg88
S'/home/jeff/digital_media_class/Proj1_intro_vid/sound/01 - Time of Your Life.mp3'
p1826
sg90
Nsg91
g1727
sg93
I0
sg47
I0
sg94
g1
sg48
I0
sg95
F13.713700000000001
sg96
F29.970029970029969
sg97
I1
sg98
S''
sg99
(F29.970029970029969
I0
tp1827
sg101
S''
sg50
S'c02f4ac7-e522-11e6-9631-e8b1fc98bbfb'
p1828
sbsg503
I00
sg504
F100
sg505
(lp1829
sg507
F0
sg508
I00
sg509
S''
sg511
S'01 - Time of Your Life.mp3'
p1830
sg513
g1764
sg515
I01
sg516
F13.713700000000001
sg517
S'c312e568-e522-11e6-9631-e8b1fc98bbfb'
p1831
sbasg88
S'Track 1'
p1832
sg90
g20
sg1658
I01
sg1692
I71
sg1688
I01
sg1693
I130
sS'x'
I10
sg1694
(lp1833
sg50
S'98c1a7a6-e4ff-11e6-9631-e8b1fc98bbfb'
p1834
sbasS'markers'
p1835
(lp1836
sS'project'
p1837
g1
sS'length'
p1838
F600
sS'ruler_time'
p1839
NsS'play_head_line'
p1840
NsbasS'refresh_xml'
p1841
I01
sS'project_type'
p1842
S'1024x576 16:9 PAL'
p1843
sS'sequences'
p1844
(lp1845
g20
asS'DEBUG'
p1846
I01
sS'UI_DIR'
p1847
S'/usr/share/openshot/openshot/windows/ui'
p1848
sS'PROFILES_DIR'
p1849
S'/usr/share/openshot/openshot/profiles'
p1850
sS'BASE_DIR'
p1851
S'/usr/share/openshot'
p1852
sS'canvas'
p1853
NsS'EXPORT_PRESETS_DIR'
p1854
S'/usr/share/openshot/openshot/export_presets'
p1855
sS'USER_TRANSITIONS_DIR'
p1856
S'/home/jeff/.openshot/user_transitions'
p1857
sS'EFFECTS_DIR'
p1858
S'/usr/share/openshot/openshot/effects'
p1859
sS'BLENDER_DIR'
p1860
S'/usr/share/openshot/openshot/blender'
p1861
sS'thumbnailer'
p1862
Nsg24
S'DM_Project_1'
p1863
sS'file_type'
p1864
S'ascii'
p1865
sS'theme'
p1866
Vsimple
p1867
sS'project_folder'
p1868
(iclasses.files
OpenShotFolder
p1869
(dp1870
S'queue'
p1871
(lp1872
sg24
S''
sg77
NsS'items'
p1873
(lp1874
g971
ag497
ag364
ag1517
ag81
ag824
ag131
ag152
ag174
ag195
ag258
a(iclasses.files
OpenShotFile
p1875
(dp1876
g83
F14999
sg84
S''
sg85
I0
sg86
S'/home/jeff/digital_media_class/Proj1_intro_vid/thumbnail/fdcb749c-e501-11e6-9631-e8b1fc98bbfb_jpg_1.png'
p1877
sg88
S'/home/jeff/digital_media_class/Proj1_intro_vid/pics/bbdoll/me-bbd.jpg'
p1878
sg90
Nsg91
g92
sg93
I0
sg47
I720
sg94
g1
sg48
I960
sg95
F300
sg96
F29.970029970029969
sg97
I1
sg98
S''
sg99
(F29.970029970029969
I0
tp1879
sg101
S''
sg50
S'fdcb749d-e501-11e6-9631-e8b1fc98bbfb'
p1880
sbag300
ag321
ag342
ag237
ag216
ag279
ag385
ag406
ag427
ag448
ag1722
ag529
ag551
ag572
ag593
ag614
ag635
ag656
ag677
ag698
a(iclasses.files
OpenShotFile
p1881
(dp1882
g83
F14999
sg84
S''
sg85
I0
sg86
S'/home/jeff/digital_media_class/Proj1_intro_vid/thumbnail/7f0bf944-e514-11e6-9631-e8b1fc98bbfb_jpg_1.png'
p1883
sg88
S'/home/jeff/digital_media_class/Proj1_intro_vid/pics/dogs/20160429_180615.jpg'
p1884
sg90
Nsg91
g533
sg93
I0
sg47
I2922
sg94
g1
sg48
I2922
sg95
F300
sg96
F29.970029970029969
sg97
I1
sg98
S''
sg99
(F29.970029970029969
I0
tp1885
sg101
S''
sg50
S'7f0bf945-e514-11e6-9631-e8b1fc98bbfb'
p1886
sbag740
ag761
ag782
ag803
ag719
ag1744
ag929
ag887
ag908
ag950
ag866
ag845
ag1765
ag1784
ag1475
ag1496
ag1454
ag1139
ag1160
ag1118
ag1181
ag1602
ag1559
ag1581
ag1202
ag1223
ag1244
ag1265
ag1286
ag1307
ag1328
ag1349
ag1370
ag1391
ag1412
ag992
ag1097
ag1013
ag1034
ag1055
ag1076
ag1623
ag1538
ag1433
ag1803
ag1822
ag1671
asS'label'
p1887
S''
sg1837
g1
sS'location'
p1888
S''
sg119
S'98c1a7a4-e4ff-11e6-9631-e8b1fc98bbfb'
p1889
sbsS'form'
p1890
NsS'folder'
p1891
S'/home/jeff/digital_media_class/Proj1_intro_vid'
p1892
sS'USER_PROFILES_DIR'
p1893
S'/home/jeff/.openshot/user_profiles'
p1894
sb.