(iclasses.project
project
p1
(dp2
S'USER_DIR'
p3
S'/home/jeff/.openshot'
p4
sS'IMAGE_DIR'
p5
S'/usr/share/openshot/openshot/images'
p6
sS'theme_settings'
p7
NsS'THEMES_DIR'
p8
S'/usr/share/openshot/openshot/themes'
p9
sS'TRANSITIONS_DIR'
p10
S'/usr/share/openshot/openshot/transitions'
p11
sS'mlt_profile'
p12
NsS'is_modified'
p13
I00
sS'DESKTOP'
p14
S'/home/jeff/Desktop'
p15
sS'LOCALE_DIR'
p16
S'/usr/share/openshot/openshot/locale'
p17
sS'tabs'
p18
(lp19
(iclasses.sequences
sequence
p20
(dp21
S'enable_animated_playhead'
p22
I01
sS'scale'
p23
I1
sS'name'
p24
S'Default Sequence 1'
p25
sS'play_head'
p26
NsS'drag_y'
p27
F37.5
sS'play_head_position'
p28
F168.28
sS'tick_pixels'
p29
I100
sS'tracks'
p30
(lp31
(iclasses.track
track
p32
(dp33
S'clips'
p34
(lp35
(iclasses.clip
clip
p36
(dp37
S'color'
p38
S'Gold'
p39
sS'moved'
p40
I00
sS'video_fade_out'
p41
I00
sS'keyframes'
p42
(dp43
S'start'
p44
(iclasses.keyframe
keyframe
p45
(dp46
S'width'
p47
F100
sS'alpha'
p48
F1
sS'y'
F0
sS'x'
F0
sS'frame'
p49
I0
sS'unique_id'
p50
S'22812979-e6be-11e6-8784-e8b1fc98bbfb'
p51
sS'height'
p52
F100
sbsS'end'
p53
(iclasses.keyframe
keyframe
p54
(dp55
g47
F100
sg48
F1
sS'y'
F0
sS'x'
F0
sg49
I-1
sg50
S'2281297a-e6be-11e6-8784-e8b1fc98bbfb'
p56
sg52
F100
sbssS'video_fade_out_amount'
p57
F2
sS'audio_fade_out'
p58
I00
sS'reversed'
p59
I00
sS'speed'
p60
F1
sS'fill'
p61
I01
sS'audio_fade_in_amount'
p62
F1.5
sS'position_on_track'
p63
F0
sg27
F52.5
sS'drag_x'
p64
F200.5
sS'play_audio'
p65
I01
sS'audio_fade_out_amount'
p66
F2
sS'max_length'
p67
F10.8108
sS'show_preview'
p68
I00
sS'valign'
p69
S'centre'
p70
sS'video_fade_in'
p71
I00
sS'audio_fade_in'
p72
I01
sS'request_show_properties'
p73
I00
sS'video_fade_in_amount'
p74
F2
sS'parent'
p75
g32
sS'composite'
p76
I01
sS'start_time'
p77
F0
sS'file_object'
p78
(iclasses.files
OpenShotFile
p79
(dp80
S'max_frames'
p81
F323
sS'audio_codec'
p82
S'MP3 (MPEG audio layer 3)'
p83
sS'audio_channels'
p84
I0
sS'thumb_location'
p85
S'/home/jeff/digital_media_class/dig_med/Proj1_intro_vid/thumbnail/1ebd8c46-e6be-11e6-8784-e8b1fc98bbfb_mp3_1.png'
p86
sS'name'
p87
S'/home/jeff/digital_media_class/dig_med/Proj1_intro_vid/sound/intro.mp3'
p88
sS'parent'
p89
NsS'file_type'
p90
S'audio'
p91
sS'audio_frequency'
p92
I0
sg52
I0
sS'project'
p93
g1
sg47
I0
sS'length'
p94
F10.8108
sS'fps'
p95
F29.970029970029969
sS'ttl'
p96
I1
sS'video_codec'
p97
S''
sS'videorate'
p98
(F29.970029970029969
I0
tp99
sS'label'
p100
S''
sg50
S'1ebd8c47-e6be-11e6-8784-e8b1fc98bbfb'
p101
sbsS'distort'
p102
I00
sS'volume'
p103
F100
sS'effects'
p104
(lp105
sS'rotation'
p106
F0
sS'is_timeline_scrolling'
p107
I00
sS'thumb_location'
p108
S''
sg24
S'intro.mp3'
p109
sS'halign'
p110
S'centre'
p111
sS'play_video'
p112
I01
sS'end_time'
p113
F10.81
sS'unique_id'
p114
S'22812978-e6be-11e6-8784-e8b1fc98bbfb'
p115
sba(iclasses.clip
clip
p116
(dp117
g38
g39
sg40
I01
sg41
I00
sg42
(dp118
g44
(iclasses.keyframe
keyframe
p119
(dp120
g49
I0
sg52
F100
sg47
F100
sS'x'
F0
sS'y'
F0
sg48
F1
sg50
S'04b3ce73-e6bf-11e6-8784-e8b1fc98bbfb'
p121
sbsg53
(iclasses.keyframe
keyframe
p122
(dp123
g49
I-1
sg52
F100
sg47
F100
sS'x'
F0
sS'y'
F0
sg48
F1
sg50
S'04b3ce74-e6bf-11e6-8784-e8b1fc98bbfb'
p124
sbssg57
F2
sg58
I01
sg59
I00
sg60
F1
sg61
I01
sg62
F2
sg63
F10.81
sg27
F42.5
sg64
F293.83208333333334
sg65
I01
sg66
F1
sg67
F36.002633333333335
sg68
I00
sg69
S'centre'
p125
sg71
I00
sg72
I00
sg73
I00
sg74
F2
sg75
g32
sg76
I01
sg77
F0
sg78
(iclasses.files
OpenShotFile
p126
(dp127
g81
F1078
sg82
S'MP3 (MPEG audio layer 3)'
p128
sg84
I0
sg85
S'/home/jeff/digital_media_class/dig_med/Proj1_intro_vid/thumbnail/026235be-e6bf-11e6-8784-e8b1fc98bbfb_mp3_1.png'
p129
sg87
S"/home/jeff/digital_media_class/dig_med/Proj1_intro_vid/sound/01 - Pachelbel's Canon in D.mp3"
p130
sg89
Nsg90
g91
sg92
I0
sg52
I0
sg93
g1
sg47
I0
sg94
F36.002633333333335
sg95
F29.970029970029969
sg96
I1
sg97
S''
sg98
(F29.970029970029969
I0
tp131
sg100
S''
sg50
S'026235bf-e6bf-11e6-8784-e8b1fc98bbfb'
p132
sbsg102
I00
sg103
F100
sg104
(lp133
sg106
F0
sg107
I00
sg108
S''
sg24
S"01 - Pachelbel's Canon in D.mp3"
p134
sg110
S'centre'
p135
sg112
I01
sg113
F36
sg114
S'04b3ce72-e6bf-11e6-8784-e8b1fc98bbfb'
p136
sba(iclasses.clip
clip
p137
(dp138
g38
g39
sg40
I01
sg41
I00
sg42
(dp139
g44
(iclasses.keyframe
keyframe
p140
(dp141
g49
I0
sg52
F100
sg47
F100
sS'x'
F0
sS'y'
F0
sg48
F1
sg50
S'099eada9-e6bf-11e6-8784-e8b1fc98bbfb'
p142
sbsg53
(iclasses.keyframe
keyframe
p143
(dp144
g49
I-1
sg52
F100
sg47
F100
sS'x'
F0
sS'y'
F0
sg48
F1
sg50
S'099eadaa-e6bf-11e6-8784-e8b1fc98bbfb'
p145
sbssg57
F2
sg58
I01
sg59
I00
sg60
F1
sg61
I01
sg62
F2
sg63
F47.128433333333341
sg27
F37.5
sg64
F720.56249999999989
sg65
I01
sg66
F1
sg67
F35.035000000000004
sg68
I00
sg69
S'centre'
p146
sg71
I00
sg72
I00
sg73
I00
sg74
F2
sg75
g32
sg76
I01
sg77
F0
sg78
(iclasses.files
OpenShotFile
p147
(dp148
g81
F1049
sg82
S'MP3 (MPEG audio layer 3)'
p149
sg84
I0
sg85
S'/home/jeff/digital_media_class/dig_med/Proj1_intro_vid/thumbnail/026235c2-e6bf-11e6-8784-e8b1fc98bbfb_mp3_1.png'
p150
sg87
S'/home/jeff/digital_media_class/dig_med/Proj1_intro_vid/sound/06 - Sweet Emotion.mp3'
p151
sg89
Nsg90
g91
sg92
I0
sg52
I0
sg93
g1
sg47
I0
sg94
F35.035000000000004
sg95
F29.970029970029969
sg96
I1
sg97
S''
sg98
(F29.970029970029969
I0
tp152
sg100
S''
sg50
S'026235c3-e6bf-11e6-8784-e8b1fc98bbfb'
p153
sbsg102
I00
sg103
F100
sg104
(lp154
sg106
F0
sg107
I00
sg108
S''
sg24
S'06 - Sweet Emotion.mp3'
p155
sg110
S'centre'
p156
sg112
I01
sg113
F35.039999999999999
sg114
S'099eada8-e6bf-11e6-8784-e8b1fc98bbfb'
p157
sba(iclasses.clip
clip
p158
(dp159
g38
g39
sg40
I00
sg41
I00
sg42
(dp160
g44
(iclasses.keyframe
keyframe
p161
(dp162
g49
I0
sg52
F100
sg47
F100
sS'x'
F0
sS'y'
F0
sg48
F1
sg50
S'0d4d5261-e6bf-11e6-8784-e8b1fc98bbfb'
p163
sbsg53
(iclasses.keyframe
keyframe
p164
(dp165
g49
I-1
sg52
F100
sg47
F100
sS'x'
F0
sS'y'
F0
sg48
F1
sg50
S'0d4d5262-e6bf-11e6-8784-e8b1fc98bbfb'
p166
sbssg57
F2
sg58
I01
sg59
I00
sg60
F1
sg61
I01
sg62
F2
sg63
F82.16843333333334
sg27
F52.5
sg64
F746.39458333333323
sg65
I01
sg66
F1
sg67
F15.648966666666666
sg69
S'centre'
p167
sg71
I00
sg72
I00
sg73
I00
sg74
F2
sg75
g32
sg76
I01
sg77
F0
sg78
(iclasses.files
OpenShotFile
p168
(dp169
g81
F468
sg82
S'MP3 (MPEG audio layer 3)'
p170
sg84
I0
sg85
S'/home/jeff/digital_media_class/dig_med/Proj1_intro_vid/thumbnail/026235c4-e6bf-11e6-8784-e8b1fc98bbfb_mp3_1.png'
p171
sg87
S'/home/jeff/digital_media_class/dig_med/Proj1_intro_vid/sound/MarinesHymn.mp3'
p172
sg89
Nsg90
g91
sg92
I0
sg52
I0
sg93
g1
sg47
I0
sg94
F15.648966666666666
sg95
F29.970029970029969
sg96
I1
sg97
S''
sg98
(F29.970029970029969
I0
tp173
sg100
S''
sg50
S'026235c5-e6bf-11e6-8784-e8b1fc98bbfb'
p174
sbsg102
I00
sg103
F100
sg104
(lp175
sg106
F0
sg107
I00
sg108
S''
sg24
S'MarinesHymn.mp3'
p176
sg110
S'centre'
p177
sg112
I01
sg113
F15.65
sg114
S'0d4d5260-e6bf-11e6-8784-e8b1fc98bbfb'
p178
sba(iclasses.clip
clip
p179
(dp180
g38
g39
sg40
I00
sg41
I00
sg42
(dp181
g44
(iclasses.keyframe
keyframe
p182
(dp183
g49
I0
sg52
F100
sg47
F100
sS'x'
F0
sS'y'
F0
sg48
F1
sg50
S'11ee7165-e6bf-11e6-8784-e8b1fc98bbfb'
p184
sbsg53
(iclasses.keyframe
keyframe
p185
(dp186
g49
I-1
sg52
F100
sg47
F100
sS'x'
F0
sS'y'
F0
sg48
F1
sg50
S'11ee7166-e6bf-11e6-8784-e8b1fc98bbfb'
p187
sbssg57
F2
sg58
I01
sg59
I00
sg60
F1
sg61
I01
sg62
F2
sg63
F97.817400000000021
sg27
F41.5
sg64
F770.7824999999998
sg65
I01
sg66
F1
sg67
F23.123100000000001
sg69
S'centre'
p188
sg71
I00
sg72
I00
sg73
I00
sg74
F2
sg75
g32
sg76
I01
sg77
F0
sg78
(iclasses.files
OpenShotFile
p189
(dp190
g81
F692
sg82
S'MP3 (MPEG audio layer 3)'
p191
sg84
I0
sg85
S'/home/jeff/digital_media_class/dig_med/Proj1_intro_vid/thumbnail/026235c0-e6bf-11e6-8784-e8b1fc98bbfb_mp3_1.png'
p192
sg87
S'/home/jeff/digital_media_class/dig_med/Proj1_intro_vid/sound/Thunderstruck.mp3'
p193
sg89
Nsg90
g91
sg92
I0
sg52
I0
sg93
g1
sg47
I0
sg94
F23.123100000000001
sg95
F29.970029970029969
sg96
I1
sg97
S''
sg98
(F29.970029970029969
I0
tp194
sg100
S''
sg50
S'026235c1-e6bf-11e6-8784-e8b1fc98bbfb'
p195
sbsg102
I00
sg103
F100
sg104
(lp196
sg106
F0
sg107
I00
sg108
S''
sg24
S'Thunderstruck.mp3'
p197
sg110
S'centre'
p198
sg112
I01
sg113
F23.120000000000001
sg114
S'11ee7164-e6bf-11e6-8784-e8b1fc98bbfb'
p199
sba(iclasses.clip
clip
p200
(dp201
g38
g39
sg40
I00
sg41
I00
sg42
(dp202
g44
(iclasses.keyframe
keyframe
p203
(dp204
g49
I0
sg52
F100
sg47
F100
sS'x'
F0
sS'y'
F0
sg48
F1
sg50
S'1aed4ee9-e6bf-11e6-8784-e8b1fc98bbfb'
p205
sbsg53
(iclasses.keyframe
keyframe
p206
(dp207
g49
I-1
sg52
F100
sg47
F100
sS'x'
F0
sS'y'
F0
sg48
F1
sg50
S'1aed4eea-e6bf-11e6-8784-e8b1fc98bbfb'
p208
sbssg57
F2
sg58
I01
sg59
I00
sg60
F1
sg61
I01
sg62
F2
sg63
F120.94050000000001
sg27
F24.5
sg64
F917.74374999999986
sg65
I01
sg66
F1
sg67
F30.2302
sg69
S'centre'
p209
sg71
I00
sg72
I00
sg73
I00
sg74
F2
sg75
g32
sg76
I01
sg77
F0
sg78
(iclasses.files
OpenShotFile
p210
(dp211
g81
F905
sg82
S'MP3 (MPEG audio layer 3)'
p212
sg84
I0
sg85
S'/home/jeff/digital_media_class/dig_med/Proj1_intro_vid/thumbnail/026235c6-e6bf-11e6-8784-e8b1fc98bbfb_mp3_1.png'
p213
sg87
S'/home/jeff/digital_media_class/dig_med/Proj1_intro_vid/sound/Tom_Sawyer.mp3'
p214
sg89
Nsg90
g91
sg92
I0
sg52
I0
sg93
g1
sg47
I0
sg94
F30.2302
sg95
F29.970029970029969
sg96
I1
sg97
S''
sg98
(F29.970029970029969
I0
tp215
sg100
S''
sg50
S'026235c7-e6bf-11e6-8784-e8b1fc98bbfb'
p216
sbsg102
I00
sg103
F100
sg104
(lp217
sg106
F0
sg107
I00
sg108
S''
sg24
S'Tom_Sawyer.mp3'
p218
sg110
S'centre'
p219
sg112
I01
sg113
F30.23
sg114
S'1aed4ee8-e6bf-11e6-8784-e8b1fc98bbfb'
p220
sba(iclasses.clip
clip
p221
(dp222
g38
g39
sg40
I00
sg41
I00
sg42
(dp223
g44
(iclasses.keyframe
keyframe
p224
(dp225
g49
I0
sg52
F100
sg47
F100
sS'x'
F0
sS'y'
F0
sg48
F1
sg50
S'22f811eb-e6bf-11e6-8784-e8b1fc98bbfb'
p226
sbsg53
(iclasses.keyframe
keyframe
p227
(dp228
g49
I-1
sg52
F100
sg47
F100
sS'x'
F0
sS'y'
F0
sg48
F1
sg50
S'22f811ec-e6bf-11e6-8784-e8b1fc98bbfb'
p229
sbssg57
F2
sg58
I00
sg59
I00
sg60
F1
sg61
I01
sg62
F2
sg63
F151.17070000000001
sg27
F0
sg64
F0
sg65
I01
sg66
F2
sg67
F13.713700000000001
sg69
S'centre'
p230
sg71
I00
sg72
I00
sg74
F2
sg75
g32
sg76
I01
sg77
F0
sg78
(iclasses.files
OpenShotFile
p231
(dp232
g81
F410
sg82
S'MP3 (MPEG audio layer 3)'
p233
sg84
I0
sg85
S'/home/jeff/digital_media_class/dig_med/Proj1_intro_vid/thumbnail/026235c8-e6bf-11e6-8784-e8b1fc98bbfb_mp3_1.png'
p234
sg87
S'/home/jeff/digital_media_class/dig_med/Proj1_intro_vid/sound/01 - Time of Your Life.mp3'
p235
sg89
Nsg90
g91
sg92
I0
sg52
I0
sg93
g1
sg47
I0
sg94
F13.713700000000001
sg95
F29.970029970029969
sg96
I1
sg97
S''
sg98
(F29.970029970029969
I0
tp236
sg100
S''
sg50
S'026235c9-e6bf-11e6-8784-e8b1fc98bbfb'
p237
sbsg102
I00
sg103
F100
sg104
(lp238
sg106
F0
sg107
I00
sg108
S''
sg24
S'01 - Time of Your Life.mp3'
p239
sg110
g230
sg112
I01
sg113
F13.713700000000001
sg114
S'22f811ea-e6bf-11e6-8784-e8b1fc98bbfb'
p240
sbasg87
S'Track 2'
p241
sg89
g20
sS'play_audio'
p242
I01
sS'y_top'
p243
I6
sS'play_video'
p244
I01
sS'y_bottom'
p245
I65
sS'x'
I10
sS'transitions'
p246
(lp247
sg50
S'f50a98ff-e6bc-11e6-8784-e8b1fc98bbfb'
p248
sba(iclasses.track
track
p249
(dp250
g34
(lp251
(iclasses.clip
clip
p252
(dp253
g38
g39
sg40
I00
sg41
I00
sg42
(dp254
g44
(iclasses.keyframe
keyframe
p255
(dp256
g49
I0
sg52
F100
sg47
F100
sS'x'
F0
sS'y'
F0
sg48
F1
sg50
S'15c880ef-e6c0-11e6-8784-e8b1fc98bbfb'
p257
sbsg53
(iclasses.keyframe
keyframe
p258
(dp259
g49
I-1
sg52
F100
sg47
F100
sS'x'
F0
sS'y'
F0
sg48
F1
sg50
S'15c880f0-e6c0-11e6-8784-e8b1fc98bbfb'
p260
sbssg57
F2
sg58
I00
sg59
I00
sg60
F1
sg61
I01
sg62
F2
sg63
F0
sg27
F48.5
sg64
F62.5
sg65
I01
sg66
F2
sg67
F300
sg68
I00
sg69
S'centre'
p261
sg71
I00
sg72
I00
sg73
I00
sg74
F2
sg75
g249
sg76
I01
sg77
F0
sg78
(iclasses.files
OpenShotFile
p262
(dp263
g81
F14999
sg82
S''
sg84
I0
sg85
S'/home/jeff/digital_media_class/dig_med/Proj1_intro_vid/thumbnail/10fd8c8a-e6c0-11e6-8784-e8b1fc98bbfb_png_1.png'
p264
sg87
S'/home/jeff/digital_media_class/dig_med/Proj1_intro_vid/art/title.png'
p265
sg89
Nsg90
S'image'
p266
sg92
I0
sg52
I400
sg93
g1
sg47
I640
sg94
F300
sg95
F29.970029970029969
sg96
I1
sg97
S''
sg98
(F29.970029970029969
I0
tp267
sg100
S''
sg50
S'10fd8c8b-e6c0-11e6-8784-e8b1fc98bbfb'
p268
sbsg102
I00
sg103
F100
sg104
(lp269
sg106
F0
sg107
I00
sg108
S'/home/jeff/digital_media_class/dig_med/Proj1_intro_vid/thumbnail/10fd8c8a-e6c0-11e6-8784-e8b1fc98bbfb_png_1.png'
p270
sg24
S'title.png'
p271
sg110
S'centre'
p272
sg112
I01
sg113
F3
sg114
S'15c880ee-e6c0-11e6-8784-e8b1fc98bbfb'
p273
sba(iclasses.clip
clip
p274
(dp275
g38
g39
sg40
I00
sg41
I00
sg42
(dp276
g44
(iclasses.keyframe
keyframe
p277
(dp278
g49
I0
sg52
F100
sg47
F100
sS'x'
F0
sS'y'
F0
sg48
F1
sg50
S'68237a61-e6c0-11e6-8784-e8b1fc98bbfb'
p279
sbsg53
(iclasses.keyframe
keyframe
p280
(dp281
g49
I-1
sg52
F100
sg47
F100
sS'x'
F0
sS'y'
F0
sg48
F1
sg50
S'68237a62-e6c0-11e6-8784-e8b1fc98bbfb'
p282
sbssg57
F2
sg58
I00
sg59
I00
sg60
F1
sg61
I01
sg62
F2
sg63
F3
sg27
F38.5
sg64
F448.5
sg65
I01
sg66
F2
sg67
F300
sg69
S'centre'
p283
sg71
I00
sg72
I00
sg73
I00
sg74
F2
sg75
g249
sg76
I01
sg77
F0
sg78
(iclasses.files
OpenShotFile
p284
(dp285
g81
F14999
sg82
S''
sg84
I0
sg85
S'/home/jeff/digital_media_class/dig_med/Proj1_intro_vid/thumbnail/5ac123f6-e6c0-11e6-8784-e8b1fc98bbfb_jpg_1.png'
p286
sg87
S'/home/jeff/digital_media_class/dig_med/Proj1_intro_vid/pics/me/me11.jpg'
p287
sg89
Nsg90
g266
sg92
I0
sg52
I960
sg93
g1
sg47
I720
sg94
F300
sg95
F29.970029970029969
sg96
I1
sg97
S''
sg98
(F29.970029970029969
I0
tp288
sg100
S''
sg50
S'5ac123f7-e6c0-11e6-8784-e8b1fc98bbfb'
p289
sbsg102
I00
sg103
F100
sg104
(lp290
sg106
F0
sg107
I00
sg108
S'/home/jeff/digital_media_class/dig_med/Proj1_intro_vid/thumbnail/5ac123f6-e6c0-11e6-8784-e8b1fc98bbfb_jpg_1.png'
p291
sg24
S'me11.jpg'
p292
sg110
S'centre'
p293
sg112
I01
sg113
F2.5
sg114
S'68237a60-e6c0-11e6-8784-e8b1fc98bbfb'
p294
sba(iclasses.clip
clip
p295
(dp296
g38
g39
sg40
I00
sg41
I00
sg42
(dp297
g44
(iclasses.keyframe
keyframe
p298
(dp299
g49
I0
sg52
F100
sg47
F100
sS'x'
F0
sS'y'
F0
sg48
F1
sg50
S'88d52ea3-e6c0-11e6-8784-e8b1fc98bbfb'
p300
sbsg53
(iclasses.keyframe
keyframe
p301
(dp302
g49
I-1
sg52
F100
sg47
F100
sS'x'
F0
sS'y'
F0
sg48
F1
sg50
S'88d52ea4-e6c0-11e6-8784-e8b1fc98bbfb'
p303
sbssg57
F2
sg58
I00
sg59
I00
sg60
F1
sg61
I01
sg62
F2
sg63
F5.5
sg27
F51.5
sg64
F584.5
sg65
I01
sg66
F2
sg67
F300
sg69
S'centre'
p304
sg71
I00
sg72
I00
sg73
I00
sg74
F2
sg75
g249
sg76
I01
sg77
F0
sg78
(iclasses.files
OpenShotFile
p305
(dp306
g81
F14999
sg82
S''
sg84
I0
sg85
S'/home/jeff/digital_media_class/dig_med/Proj1_intro_vid/thumbnail/5ac123f4-e6c0-11e6-8784-e8b1fc98bbfb_jpg_1.png'
p307
sg87
S'/home/jeff/digital_media_class/dig_med/Proj1_intro_vid/pics/me/20170123_224128.jpg'
p308
sg89
Nsg90
g266
sg92
I0
sg52
I1944
sg93
g1
sg47
I2592
sg94
F300
sg95
F29.970029970029969
sg96
I1
sg97
S''
sg98
(F29.970029970029969
I0
tp309
sg100
S''
sg50
S'5ac123f5-e6c0-11e6-8784-e8b1fc98bbfb'
p310
sbsg102
I00
sg103
F100
sg104
(lp311
sg106
F0
sg107
I00
sg108
S'/home/jeff/digital_media_class/dig_med/Proj1_intro_vid/thumbnail/5ac123f4-e6c0-11e6-8784-e8b1fc98bbfb_jpg_1.png'
p312
sg24
S'20170123_224128.jpg'
p313
sg110
S'centre'
p314
sg112
I01
sg113
F2.5
sg114
S'88d52ea2-e6c0-11e6-8784-e8b1fc98bbfb'
p315
sba(iclasses.clip
clip
p316
(dp317
g38
g39
sg40
I00
sg41
I00
sg42
(dp318
g44
(iclasses.keyframe
keyframe
p319
(dp320
g49
I0
sg52
F100
sg47
F100
sS'x'
F0
sS'y'
F0
sg48
F1
sg50
S'997bd3fb-e6c0-11e6-8784-e8b1fc98bbfb'
p321
sbsg53
(iclasses.keyframe
keyframe
p322
(dp323
g49
I-1
sg52
F100
sg47
F100
sS'x'
F0
sS'y'
F0
sg48
F1
sg50
S'997bd3fc-e6c0-11e6-8784-e8b1fc98bbfb'
p324
sbssg57
F2
sg58
I00
sg59
I00
sg60
F1
sg61
I01
sg62
F2
sg63
F8
sg27
F46.5
sg64
F881.5
sg65
I01
sg66
F2
sg67
F300
sg68
I00
sg69
S'centre'
p325
sg71
I00
sg72
I00
sg73
I00
sg74
F2
sg75
g249
sg76
I01
sg77
F0
sg78
(iclasses.files
OpenShotFile
p326
(dp327
g81
F14999
sg82
S''
sg84
I0
sg85
S'/home/jeff/digital_media_class/dig_med/Proj1_intro_vid/thumbnail/5ac123f8-e6c0-11e6-8784-e8b1fc98bbfb_jpg_1.png'
p328
sg87
S'/home/jeff/digital_media_class/dig_med/Proj1_intro_vid/pics/me/me.jpg'
p329
sg89
Nsg90
g266
sg92
I0
sg52
I370
sg93
g1
sg47
I340
sg94
F300
sg95
F29.970029970029969
sg96
I1
sg97
S''
sg98
(F29.970029970029969
I0
tp330
sg100
S''
sg50
S'5ac123f9-e6c0-11e6-8784-e8b1fc98bbfb'
p331
sbsg102
I00
sg103
F100
sg104
(lp332
sg106
F0
sg107
I00
sg108
S'/home/jeff/digital_media_class/dig_med/Proj1_intro_vid/thumbnail/5ac123f8-e6c0-11e6-8784-e8b1fc98bbfb_jpg_1.png'
p333
sg24
S'me.jpg'
p334
sg110
S'centre'
p335
sg112
I01
sg113
F2.75
sg114
S'997bd3fa-e6c0-11e6-8784-e8b1fc98bbfb'
p336
sba(iclasses.clip
clip
p337
(dp338
g38
g39
sg40
I00
sg41
I00
sg42
(dp339
g44
(iclasses.keyframe
keyframe
p340
(dp341
g47
F100
sg48
F1
sS'y'
F0
sS'x'
F0
sg49
I0
sg50
S'defd0c33-e6c0-11e6-8784-e8b1fc98bbfb'
p342
sg52
F100
sbsg53
(iclasses.keyframe
keyframe
p343
(dp344
g47
F100
sg48
F1
sS'y'
F0
sS'x'
F0
sg49
I-1
sg50
S'defd0c34-e6c0-11e6-8784-e8b1fc98bbfb'
p345
sg52
F100
sbssg57
F2
sg58
I00
sg59
I00
sg60
F1
sg61
I01
sg62
F2
sg63
F10.75
sg27
F107.5
sg64
F1321.5
sg65
I01
sg66
F2
sg67
F300
sS'show_preview'
p346
I00
sg69
S'centre'
p347
sg71
I00
sg72
I00
sS'request_show_properties'
p348
I00
sg74
F2
sg75
g249
sg76
I01
sg77
F0
sg78
(iclasses.files
OpenShotFile
p349
(dp350
g81
F14999
sg82
S''
sg84
I0
sg85
S'/home/jeff/digital_media_class/dig_med/Proj1_intro_vid/thumbnail/10fd8c9c-e6c0-11e6-8784-e8b1fc98bbfb_png_1.png'
p351
sg87
S'/home/jeff/digital_media_class/dig_med/Proj1_intro_vid/art/family.png'
p352
sg89
Nsg90
g266
sg92
I0
sg52
I400
sg93
g1
sg47
I640
sg94
F300
sg95
F29.970029970029969
sg96
I1
sg97
S''
sg98
(F29.970029970029969
I0
tp353
sg100
S''
sg50
S'10fd8c9d-e6c0-11e6-8784-e8b1fc98bbfb'
p354
sbsg102
I00
sg103
F100
sg104
(lp355
sg106
F0
sg107
I00
sg108
S'/home/jeff/digital_media_class/dig_med/Proj1_intro_vid/thumbnail/10fd8c9c-e6c0-11e6-8784-e8b1fc98bbfb_png_1.png'
p356
sg24
S'family.png'
p357
sg110
S'centre'
p358
sg112
I01
sg113
F2
sg114
S'defd0c32-e6c0-11e6-8784-e8b1fc98bbfb'
p359
sba(iclasses.clip
clip
p360
(dp361
S'color'
p362
S'Gold'
p363
sS'reversed'
p364
I00
sS'video_fade_out'
p365
I00
sS'keyframes'
p366
(dp367
S'start'
p368
(iclasses.keyframe
keyframe
p369
(dp370
g47
F100
sg48
F1
sS'y'
F0
sS'x'
F0
sg49
I0
sg50
S'18905509-e6c1-11e6-8784-e8b1fc98bbfb'
p371
sg52
F100
sbsS'end'
p372
(iclasses.keyframe
keyframe
p373
(dp374
g47
F100
sg48
F1
sS'y'
F0
sS'x'
F0
sg49
I-1
sg50
S'1890550a-e6c1-11e6-8784-e8b1fc98bbfb'
p375
sg52
F100
sbssS'video_fade_out_amount'
p376
F2
sS'audio_fade_out'
p377
I00
sS'speed'
p378
F1
sS'fill'
p379
I01
sS'audio_fade_in_amount'
p380
F2
sS'position_on_track'
p381
F12.75
sS'drag_y'
p382
F50.5
sS'drag_x'
p383
F295.5
sg242
I01
sS'audio_fade_out_amount'
p384
F2
sS'max_length'
p385
F300
sg346
I00
sS'valign'
p386
S'centre'
p387
sS'video_fade_in'
p388
I00
sS'audio_fade_in'
p389
I00
sg348
I00
sS'video_fade_in_amount'
p390
F2
sg89
g249
sS'composite'
p391
I01
sS'moved'
p392
I00
sS'start_time'
p393
F0
sS'file_object'
p394
(iclasses.files
OpenShotFile
p395
(dp396
g81
F14999
sg82
S''
sg84
I0
sg85
S'/home/jeff/digital_media_class/dig_med/Proj1_intro_vid/thumbnail/d37477d8-e6c0-11e6-8784-e8b1fc98bbfb_jpg_1.png'
p397
sg87
S'/home/jeff/digital_media_class/dig_med/Proj1_intro_vid/pics/bbdoll/us.jpg'
p398
sg89
Nsg90
g266
sg92
I0
sg52
I540
sg93
g1
sg47
I960
sg94
F300
sg95
F29.970029970029969
sg96
I1
sg97
S''
sg98
(F29.970029970029969
I0
tp399
sg100
S''
sg50
S'd37477d9-e6c0-11e6-8784-e8b1fc98bbfb'
p400
sbsS'distort'
p401
I00
sS'volume'
p402
F100
sS'effects'
p403
(lp404
sS'rotation'
p405
F0
sS'is_timeline_scrolling'
p406
I00
sg85
S'/home/jeff/digital_media_class/dig_med/Proj1_intro_vid/thumbnail/d37477d8-e6c0-11e6-8784-e8b1fc98bbfb_jpg_1.png'
p407
sg87
S'us.jpg'
p408
sS'halign'
p409
S'centre'
p410
sg244
I01
sS'end_time'
p411
F2
sg50
S'18905508-e6c1-11e6-8784-e8b1fc98bbfb'
p412
sba(iclasses.clip
clip
p413
(dp414
g362
g363
sg364
I00
sg365
I00
sg366
(dp415
g368
(iclasses.keyframe
keyframe
p416
(dp417
g47
F100
sg48
F1
sS'y'
F0
sS'x'
F0
sg49
I0
sg50
S'436567bf-e6c1-11e6-8784-e8b1fc98bbfb'
p418
sg52
F100
sbsg372
(iclasses.keyframe
keyframe
p419
(dp420
g47
F100
sg48
F1
sS'y'
F0
sS'x'
F0
sg49
I-1
sg50
S'436567c0-e6c1-11e6-8784-e8b1fc98bbfb'
p421
sg52
F100
sbssg376
F2
sg377
I00
sg378
F1
sg379
I01
sg380
F2
sg381
F14.75
sg382
F38.5
sg383
F722.5
sg242
I01
sg384
F2
sg385
F300
sg386
S'centre'
p422
sg388
I00
sg389
I00
sg348
I00
sg390
F2
sg89
g249
sg391
I01
sg392
I00
sg393
F0
sg394
(iclasses.files
OpenShotFile
p423
(dp424
g81
F14999
sg82
S''
sg84
I0
sg85
S'/home/jeff/digital_media_class/dig_med/Proj1_intro_vid/thumbnail/10fd8c9a-e6c0-11e6-8784-e8b1fc98bbfb_png_1.png'
p425
sg87
S'/home/jeff/digital_media_class/dig_med/Proj1_intro_vid/art/wife.png'
p426
sg89
Nsg90
g266
sg92
I0
sg52
I400
sg93
g1
sg47
I640
sg94
F300
sg95
F29.970029970029969
sg96
I1
sg97
S''
sg98
(F29.970029970029969
I0
tp427
sg100
S''
sg50
S'10fd8c9b-e6c0-11e6-8784-e8b1fc98bbfb'
p428
sbsg401
I00
sg402
F100
sg403
(lp429
sg405
F0
sg406
I00
sg85
S'/home/jeff/digital_media_class/dig_med/Proj1_intro_vid/thumbnail/10fd8c9a-e6c0-11e6-8784-e8b1fc98bbfb_png_1.png'
p430
sg87
S'wife.png'
p431
sg409
S'centre'
p432
sg244
I01
sg411
F2
sg50
S'436567be-e6c1-11e6-8784-e8b1fc98bbfb'
p433
sba(iclasses.clip
clip
p434
(dp435
g362
g363
sg364
I00
sg365
I00
sg366
(dp436
g368
(iclasses.keyframe
keyframe
p437
(dp438
g47
F100
sg48
F1
sS'y'
F0
sS'x'
F0
sg49
I0
sg50
S'54aae031-e6c1-11e6-8784-e8b1fc98bbfb'
p439
sg52
F100
sbsg372
(iclasses.keyframe
keyframe
p440
(dp441
g47
F100
sg48
F1
sS'y'
F0
sS'x'
F0
sg49
I-1
sg50
S'54aae032-e6c1-11e6-8784-e8b1fc98bbfb'
p442
sg52
F100
sbssg376
F2
sg377
I00
sg378
F1
sg379
I01
sg380
F2
sg381
F16.75
sg382
F101.5
sg383
F1908.5
sg242
I01
sg384
F2
sg385
F300
sg386
S'centre'
p443
sg388
I00
sg389
I00
sg348
I00
sg390
F2
sg89
g249
sg391
I01
sg392
I00
sg393
F0
sg394
(iclasses.files
OpenShotFile
p444
(dp445
g81
F14999
sg82
S''
sg84
I0
sg85
S'/home/jeff/digital_media_class/dig_med/Proj1_intro_vid/thumbnail/d37477dc-e6c0-11e6-8784-e8b1fc98bbfb_jpg_1.png'
p446
sg87
S'/home/jeff/digital_media_class/dig_med/Proj1_intro_vid/pics/bbdoll/bbdoll1.jpg'
p447
sg89
Nsg90
g266
sg92
I0
sg52
I403
sg93
g1
sg47
I593
sg94
F300
sg95
F29.970029970029969
sg96
I1
sg97
S''
sg98
(F29.970029970029969
I0
tp448
sg100
S''
sg50
S'd37477dd-e6c0-11e6-8784-e8b1fc98bbfb'
p449
sbsg401
I00
sg402
F100
sg403
(lp450
sg405
F0
sg406
I00
sg85
S'/home/jeff/digital_media_class/dig_med/Proj1_intro_vid/thumbnail/d37477dc-e6c0-11e6-8784-e8b1fc98bbfb_jpg_1.png'
p451
sg87
S'bbdoll1.jpg'
p452
sg409
S'centre'
p453
sg244
I01
sg411
F3.25
sg50
S'54aae030-e6c1-11e6-8784-e8b1fc98bbfb'
p454
sba(iclasses.clip
clip
p455
(dp456
g362
g363
sg364
I00
sg365
I00
sg366
(dp457
g368
(iclasses.keyframe
keyframe
p458
(dp459
g47
F100
sg48
F1
sS'y'
F0
sS'x'
F0
sg49
I0
sg50
S'6f7de985-e6c1-11e6-8784-e8b1fc98bbfb'
p460
sg52
F100
sbsg372
(iclasses.keyframe
keyframe
p461
(dp462
g47
F100
sg48
F1
sS'y'
F0
sS'x'
F0
sg49
I-1
sg50
S'6f7de986-e6c1-11e6-8784-e8b1fc98bbfb'
p463
sg52
F100
sbssg376
F2
sg377
I00
sg378
F1
sg379
I01
sg380
F2
sg381
F20
sg382
F89.5
sg383
F2290.5
sg242
I01
sg384
F2
sg385
F300
sg346
I00
sg386
S'centre'
p464
sg388
I00
sg389
I00
sg348
I00
sg390
F2
sg89
g249
sg391
I01
sg392
I01
sg393
F0
sg394
(iclasses.files
OpenShotFile
p465
(dp466
g81
F14999
sg82
S''
sg84
I0
sg85
S'/home/jeff/digital_media_class/dig_med/Proj1_intro_vid/thumbnail/d5b957fc-e6c0-11e6-8784-e8b1fc98bbfb_jpg_1.png'
p467
sg87
S'/home/jeff/digital_media_class/dig_med/Proj1_intro_vid/pics/bbdoll/bbdoll90.jpg'
p468
sg89
Nsg90
g266
sg92
I0
sg52
I960
sg93
g1
sg47
I960
sg94
F300
sg95
F29.970029970029969
sg96
I1
sg97
S''
sg98
(F29.970029970029969
I0
tp469
sg100
S''
sg50
S'd5b957fd-e6c0-11e6-8784-e8b1fc98bbfb'
p470
sbsg401
I00
sg402
F100
sg403
(lp471
sg405
F0
sg406
I00
sg85
S'/home/jeff/digital_media_class/dig_med/Proj1_intro_vid/thumbnail/d5b957fc-e6c0-11e6-8784-e8b1fc98bbfb_jpg_1.png'
p472
sg87
S'bbdoll90.jpg'
p473
sg409
S'centre'
p474
sg244
I01
sg411
F3.25
sg50
S'6f7de984-e6c1-11e6-8784-e8b1fc98bbfb'
p475
sba(iclasses.clip
clip
p476
(dp477
g362
g363
sg364
I00
sg365
I00
sg366
(dp478
g368
(iclasses.keyframe
keyframe
p479
(dp480
g47
F100
sS'x'
F0
sS'y'
F0
sg48
F1
sg49
I0
sg50
S'7ad0d09f-e6c1-11e6-8784-e8b1fc98bbfb'
p481
sg52
F100
sbsg372
(iclasses.keyframe
keyframe
p482
(dp483
g47
F100
sS'x'
F0
sS'y'
F0
sg48
F1
sg49
I-1
sg50
S'7ad0d0a0-e6c1-11e6-8784-e8b1fc98bbfb'
p484
sg52
F100
sbssg376
F2
sg377
I00
sg378
F1
sg379
I01
sg380
F2
sg381
F23.25
sg382
F103.5
sg383
F2588.2099143206874
sg242
I01
sg384
F2
sg385
F300
sg346
I00
sg386
S'centre'
p485
sg388
I00
sg389
I00
sg348
I00
sg390
F2
sg89
g249
sg391
I01
sg392
I00
sg393
F0
sg394
(iclasses.files
OpenShotFile
p486
(dp487
g81
F14999
sg82
S''
sg84
I0
sg85
S'/home/jeff/digital_media_class/dig_med/Proj1_intro_vid/thumbnail/d37477e6-e6c0-11e6-8784-e8b1fc98bbfb_jpg_1.png'
p488
sg87
S'/home/jeff/digital_media_class/dig_med/Proj1_intro_vid/pics/bbdoll/bbdoll_ice.jpg'
p489
sg89
Nsg90
g266
sg92
I0
sg52
I3024
sg93
g1
sg47
I4032
sg94
F300
sg95
F29.970029970029969
sg96
I1
sg97
S''
sg98
(F29.970029970029969
I0
tp490
sg100
S''
sg50
S'd457aec2-e6c0-11e6-8784-e8b1fc98bbfb'
p491
sbsg401
I00
sg402
F100
sg403
(lp492
sg405
F0
sg406
I00
sg85
S'/home/jeff/digital_media_class/dig_med/Proj1_intro_vid/thumbnail/d37477e6-e6c0-11e6-8784-e8b1fc98bbfb_jpg_1.png'
p493
sg87
S'bbdoll_ice.jpg'
p494
sg409
S'centre'
p495
sg244
I01
sg411
F3.3500000000000001
sg50
S'7ad0d09e-e6c1-11e6-8784-e8b1fc98bbfb'
p496
sba(iclasses.clip
clip
p497
(dp498
g362
g363
sg364
I00
sg365
I00
sg366
(dp499
g368
(iclasses.keyframe
keyframe
p500
(dp501
g47
F100
sS'x'
F0
sS'y'
F0
sg48
F1
sg49
I0
sg50
S'9427d9bb-e6c2-11e6-8784-e8b1fc98bbfb'
p502
sg52
F100
sbsg372
(iclasses.keyframe
keyframe
p503
(dp504
g47
F100
sS'x'
F0
sS'y'
F0
sg48
F1
sg49
I-1
sg50
S'9427d9bc-e6c2-11e6-8784-e8b1fc98bbfb'
p505
sg52
F100
sbssg376
F2
sg377
I00
sg378
F1
sg379
I01
sg380
F2
sg381
F26.577099143206873
sg382
F94.5
sg383
F2828.5
sg242
I01
sg384
F2
sg385
F300
sg346
I00
sg386
S'centre'
p506
sg388
I00
sg389
I00
sg348
I00
sg390
F2
sg89
g249
sg391
I01
sg392
I01
sg393
F0
sg394
(iclasses.files
OpenShotFile
p507
(dp508
g81
F14999
sg82
S''
sg84
I0
sg85
S'/home/jeff/digital_media_class/dig_med/Proj1_intro_vid/thumbnail/d37477de-e6c0-11e6-8784-e8b1fc98bbfb_jpg_1.png'
p509
sg87
S'/home/jeff/digital_media_class/dig_med/Proj1_intro_vid/pics/bbdoll/me-bbd1.jpg'
p510
sg89
Nsg90
g266
sg92
I0
sg52
I480
sg93
g1
sg47
I640
sg94
F300
sg95
F29.970029970029969
sg96
I1
sg97
S''
sg98
(F29.970029970029969
I0
tp511
sg100
S''
sg50
S'd37477df-e6c0-11e6-8784-e8b1fc98bbfb'
p512
sbsg401
I00
sg402
F100
sg403
(lp513
sg405
F0
sg406
I00
sg85
S'/home/jeff/digital_media_class/dig_med/Proj1_intro_vid/thumbnail/d37477de-e6c0-11e6-8784-e8b1fc98bbfb_jpg_1.png'
p514
sg87
S'me-bbd1.jpg'
p515
sg409
S'centre'
p516
sg244
I01
sg411
F3.25
sg50
S'9427d9ba-e6c2-11e6-8784-e8b1fc98bbfb'
p517
sba(iclasses.clip
clip
p518
(dp519
g362
g363
sg364
I00
sg365
I00
sg366
(dp520
g368
(iclasses.keyframe
keyframe
p521
(dp522
g47
F100
sS'x'
F0
sS'y'
F0
sg48
F1
sg49
I0
sg50
S'8ae3e611-e6c1-11e6-8784-e8b1fc98bbfb'
p523
sg52
F100
sbsg372
(iclasses.keyframe
keyframe
p524
(dp525
g47
F100
sS'x'
F0
sS'y'
F0
sg48
F1
sg49
I-1
sg50
S'8ae3e612-e6c1-11e6-8784-e8b1fc98bbfb'
p526
sg52
F100
sbssg376
F2
sg377
I00
sg378
F1
sg379
I01
sg380
F2
sg381
F29.827099143206873
sg382
F111.5
sg383
F2502.5
sg242
I01
sg384
F2
sg385
F300
sg346
I00
sg386
S'centre'
p527
sg388
I00
sg389
I00
sg348
I00
sg390
F2
sg89
g249
sg391
I01
sg392
I01
sg393
F0
sg394
(iclasses.files
OpenShotFile
p528
(dp529
g81
F14999
sg82
S''
sg84
I0
sg85
S'/home/jeff/digital_media_class/dig_med/Proj1_intro_vid/thumbnail/d37477e2-e6c0-11e6-8784-e8b1fc98bbfb_jpg_1.png'
p530
sg87
S'/home/jeff/digital_media_class/dig_med/Proj1_intro_vid/pics/bbdoll/me-bbd2.jpg'
p531
sg89
Nsg90
g266
sg92
I0
sg52
I387
sg93
g1
sg47
I402
sg94
F300
sg95
F29.970029970029969
sg96
I1
sg97
S''
sg98
(F29.970029970029969
I0
tp532
sg100
S''
sg50
S'd37477e3-e6c0-11e6-8784-e8b1fc98bbfb'
p533
sbsg401
I00
sg402
F100
sg403
(lp534
sg405
F0
sg406
I00
sg85
S'/home/jeff/digital_media_class/dig_med/Proj1_intro_vid/thumbnail/d37477e2-e6c0-11e6-8784-e8b1fc98bbfb_jpg_1.png'
p535
sg87
S'me-bbd2.jpg'
p536
sg409
S'centre'
p537
sg244
I01
sg411
F2.5
sg50
S'8ae3e610-e6c1-11e6-8784-e8b1fc98bbfb'
p538
sba(iclasses.clip
clip
p539
(dp540
g362
g363
sg364
I00
sg365
I00
sg366
(dp541
g368
(iclasses.keyframe
keyframe
p542
(dp543
g47
F100
sS'x'
F0
sS'y'
F0
sg48
F1
sg49
I0
sg50
S'9b5f79d3-e6c1-11e6-8784-e8b1fc98bbfb'
p544
sg52
F100
sbsg372
(iclasses.keyframe
keyframe
p545
(dp546
g47
F100
sS'x'
F0
sS'y'
F0
sg48
F1
sg49
I-1
sg50
S'9b5f79d4-e6c1-11e6-8784-e8b1fc98bbfb'
p547
sg52
F100
sbssg376
F2
sg377
I00
sg378
F1
sg379
I01
sg380
F2
sg381
F32.327099143206873
sg382
F93.5
sg383
F2682.5
sg242
I01
sg384
F2
sg385
F300
sg346
I00
sg386
S'centre'
p548
sg388
I00
sg389
I00
sg348
I00
sg390
F2
sg89
g249
sg391
I01
sg392
I01
sg393
F0
sg394
(iclasses.files
OpenShotFile
p549
(dp550
g81
F14999
sg82
S''
sg84
I0
sg85
S'/home/jeff/digital_media_class/dig_med/Proj1_intro_vid/thumbnail/d37477e4-e6c0-11e6-8784-e8b1fc98bbfb_jpg_1.png'
p551
sg87
S'/home/jeff/digital_media_class/dig_med/Proj1_intro_vid/pics/bbdoll/me-bbd3.jpg'
p552
sg89
Nsg90
g266
sg92
I0
sg52
I720
sg93
g1
sg47
I960
sg94
F300
sg95
F29.970029970029969
sg96
I1
sg97
S''
sg98
(F29.970029970029969
I0
tp553
sg100
S''
sg50
S'd37477e5-e6c0-11e6-8784-e8b1fc98bbfb'
p554
sbsg401
I00
sg402
F100
sg403
(lp555
sg405
F0
sg406
I00
sg85
S'/home/jeff/digital_media_class/dig_med/Proj1_intro_vid/thumbnail/d37477e4-e6c0-11e6-8784-e8b1fc98bbfb_jpg_1.png'
p556
sg87
S'me-bbd3.jpg'
p557
sg409
S'centre'
p558
sg244
I01
sg411
F2.5
sg50
S'9b5f79d2-e6c1-11e6-8784-e8b1fc98bbfb'
p559
sba(iclasses.clip
clip
p560
(dp561
g362
g363
sg364
I00
sg365
I00
sg366
(dp562
g368
(iclasses.keyframe
keyframe
p563
(dp564
g47
F100
sg48
F1
sS'y'
F0
sS'x'
F0
sg49
I0
sg50
S'b9124eb5-e6c1-11e6-8784-e8b1fc98bbfb'
p565
sg52
F100
sbsg372
(iclasses.keyframe
keyframe
p566
(dp567
g47
F100
sg48
F1
sS'y'
F0
sS'x'
F0
sg49
I-1
sg50
S'b9124eb6-e6c1-11e6-8784-e8b1fc98bbfb'
p568
sg52
F100
sbssg376
F2
sg377
I00
sg378
F1
sg379
I01
sg380
F2
sg381
F34.827099143206873
sg382
F96.5
sg383
F2848.5
sg242
I01
sg384
F2
sg385
F300
sg346
I00
sg386
S'centre'
p569
sg388
I00
sg389
I00
sg348
I00
sg390
F2
sg89
g249
sg391
I01
sg392
I01
sg393
F0
sg394
(iclasses.files
OpenShotFile
p570
(dp571
g81
F14999
sg82
S''
sg84
I0
sg85
S'/home/jeff/digital_media_class/dig_med/Proj1_intro_vid/thumbnail/10fd8c98-e6c0-11e6-8784-e8b1fc98bbfb_png_1.png'
p572
sg87
S'/home/jeff/digital_media_class/dig_med/Proj1_intro_vid/art/kids.png'
p573
sg89
Nsg90
g266
sg92
I0
sg52
I400
sg93
g1
sg47
I640
sg94
F300
sg95
F29.970029970029969
sg96
I1
sg97
S''
sg98
(F29.970029970029969
I0
tp574
sg100
S''
sg50
S'10fd8c99-e6c0-11e6-8784-e8b1fc98bbfb'
p575
sbsg401
I00
sg402
F100
sg403
(lp576
sg405
F0
sg406
I00
sg85
S'/home/jeff/digital_media_class/dig_med/Proj1_intro_vid/thumbnail/10fd8c98-e6c0-11e6-8784-e8b1fc98bbfb_png_1.png'
p577
sg87
S'kids.png'
p578
sg409
S'centre'
p579
sg244
I01
sg411
F2
sg50
S'b9124eb4-e6c1-11e6-8784-e8b1fc98bbfb'
p580
sba(iclasses.clip
clip
p581
(dp582
g362
g363
sg364
I00
sg365
I00
sg366
(dp583
g368
(iclasses.keyframe
keyframe
p584
(dp585
g47
F100
sS'x'
F0
sS'y'
F0
sg48
F1
sg49
I0
sg50
S'd95390b7-e6c1-11e6-8784-e8b1fc98bbfb'
p586
sg52
F100
sbsg372
(iclasses.keyframe
keyframe
p587
(dp588
g47
F100
sS'x'
F0
sS'y'
F0
sg48
F1
sg49
I-1
sg50
S'd95390b8-e6c1-11e6-8784-e8b1fc98bbfb'
p589
sg52
F100
sbssg376
F2
sg377
I00
sg378
F1
sg379
I01
sg380
F2
sg381
F36.827099143206873
sg382
F105.5
sg383
F3074.5
sg242
I01
sg384
F2
sg385
F300
sg346
I00
sg386
S'centre'
p590
sg388
I00
sg389
I00
sg348
I00
sg390
F2
sg89
g249
sg391
I01
sg392
I01
sg393
F0
sg394
(iclasses.files
OpenShotFile
p591
(dp592
g81
F14999
sg82
S''
sg84
I0
sg85
S'/home/jeff/digital_media_class/dig_med/Proj1_intro_vid/thumbnail/d532367c-e6c1-11e6-8784-e8b1fc98bbfb_jpg_1.png'
p593
sg87
S'/home/jeff/digital_media_class/dig_med/Proj1_intro_vid/pics/kids/mike.jpg'
p594
sg89
Nsg90
S'image'
p595
sg92
I0
sg52
I390
sg93
g1
sg47
I337
sg94
F300
sg95
F29.970029970029969
sg96
I1
sg97
S''
sg98
(F29.970029970029969
I0
tp596
sg100
S''
sg50
S'd532367d-e6c1-11e6-8784-e8b1fc98bbfb'
p597
sbsg401
I00
sg402
F100
sg403
(lp598
sg405
F0
sg406
I00
sg85
S'/home/jeff/digital_media_class/dig_med/Proj1_intro_vid/thumbnail/d532367c-e6c1-11e6-8784-e8b1fc98bbfb_jpg_1.png'
p599
sg87
S'mike.jpg'
p600
sg409
S'centre'
p601
sg244
I01
sg411
F2.5
sg50
S'd95390b6-e6c1-11e6-8784-e8b1fc98bbfb'
p602
sba(iclasses.clip
clip
p603
(dp604
g362
g363
sg364
I00
sg365
I00
sg366
(dp605
g368
(iclasses.keyframe
keyframe
p606
(dp607
g47
F100
sS'x'
F0
sS'y'
F0
sg48
F1
sg49
I0
sg50
S'e33e610b-e6c1-11e6-8784-e8b1fc98bbfb'
p608
sg52
F100
sbsg372
(iclasses.keyframe
keyframe
p609
(dp610
g47
F100
sS'x'
F0
sS'y'
F0
sg48
F1
sg49
I-1
sg50
S'e33e610c-e6c1-11e6-8784-e8b1fc98bbfb'
p611
sg52
F100
sbssg376
F2
sg377
I00
sg378
F1
sg379
I01
sg380
F2
sg381
F39.327099143206873
sg382
F105.5
sg383
F3294.5
sg242
I01
sg384
F2
sg385
F300
sg346
I00
sg386
S'centre'
p612
sg388
I00
sg389
I00
sg348
I00
sg390
F2
sg89
g249
sg391
I01
sg392
I01
sg393
F0
sg394
(iclasses.files
OpenShotFile
p613
(dp614
g81
F14999
sg82
S''
sg84
I0
sg85
S'/home/jeff/digital_media_class/dig_med/Proj1_intro_vid/thumbnail/d532367e-e6c1-11e6-8784-e8b1fc98bbfb_jpg_1.png'
p615
sg87
S'/home/jeff/digital_media_class/dig_med/Proj1_intro_vid/pics/kids/mel.jpg'
p616
sg89
Nsg90
g595
sg92
I0
sg52
I824
sg93
g1
sg47
I571
sg94
F300
sg95
F29.970029970029969
sg96
I1
sg97
S''
sg98
(F29.970029970029969
I0
tp617
sg100
S''
sg50
S'd532367f-e6c1-11e6-8784-e8b1fc98bbfb'
p618
sbsg401
I00
sg402
F100
sg403
(lp619
sg405
F0
sg406
I00
sg85
S'/home/jeff/digital_media_class/dig_med/Proj1_intro_vid/thumbnail/d532367e-e6c1-11e6-8784-e8b1fc98bbfb_jpg_1.png'
p620
sg87
S'mel.jpg'
p621
sg409
S'centre'
p622
sg244
I01
sg411
F2.5
sg50
S'e33e610a-e6c1-11e6-8784-e8b1fc98bbfb'
p623
sba(iclasses.clip
clip
p624
(dp625
g362
g363
sg364
I00
sg365
I00
sg366
(dp626
g368
(iclasses.keyframe
keyframe
p627
(dp628
g47
F100
sg48
F1
sS'y'
F0
sS'x'
F0
sg49
I0
sg50
S'362494d5-e6c2-11e6-8784-e8b1fc98bbfb'
p629
sg52
F100
sbsg372
(iclasses.keyframe
keyframe
p630
(dp631
g47
F100
sg48
F1
sS'y'
F0
sS'x'
F0
sg49
I-1
sg50
S'362494d6-e6c2-11e6-8784-e8b1fc98bbfb'
p632
sg52
F100
sbssg376
F2
sg377
I00
sg378
F1
sg379
I01
sg380
F2
sg381
F41.827099143206873
sg382
F94.5
sg383
F3749.5
sg242
I01
sg384
F2
sg385
F300
sg346
I00
sg386
S'centre'
p633
sg388
I00
sg389
I00
sg348
I00
sg390
F2
sg89
g249
sg391
I01
sg392
I01
sg393
F0
sg394
(iclasses.files
OpenShotFile
p634
(dp635
g81
F14999
sg82
S''
sg84
I0
sg85
S'/home/jeff/digital_media_class/dig_med/Proj1_intro_vid/thumbnail/d5323686-e6c1-11e6-8784-e8b1fc98bbfb_jpg_1.png'
p636
sg87
S'/home/jeff/digital_media_class/dig_med/Proj1_intro_vid/pics/kids/mike_kelsey1.jpg'
p637
sg89
Nsg90
g595
sg92
I0
sg52
I960
sg93
g1
sg47
I960
sg94
F300
sg95
F29.970029970029969
sg96
I1
sg97
S''
sg98
(F29.970029970029969
I0
tp638
sg100
S''
sg50
S'd5323687-e6c1-11e6-8784-e8b1fc98bbfb'
p639
sbsg401
I00
sg402
F100
sg403
(lp640
sg405
F0
sg406
I00
sg85
S'/home/jeff/digital_media_class/dig_med/Proj1_intro_vid/thumbnail/d5323686-e6c1-11e6-8784-e8b1fc98bbfb_jpg_1.png'
p641
sg87
S'mike_kelsey1.jpg'
p642
sg409
S'centre'
p643
sg244
I01
sg411
F2.5
sg50
S'362494d4-e6c2-11e6-8784-e8b1fc98bbfb'
p644
sba(iclasses.clip
clip
p645
(dp646
g362
g363
sg364
I00
sg365
I00
sg366
(dp647
g368
(iclasses.keyframe
keyframe
p648
(dp649
g47
F100
sg48
F1
sS'y'
F0
sS'x'
F0
sg49
I0
sg50
S'242df37f-e6c2-11e6-8784-e8b1fc98bbfb'
p650
sg52
F100
sbsg372
(iclasses.keyframe
keyframe
p651
(dp652
g47
F100
sg48
F1
sS'y'
F0
sS'x'
F0
sg49
I-1
sg50
S'242df380-e6c2-11e6-8784-e8b1fc98bbfb'
p653
sg52
F100
sbssg376
F2
sg377
I00
sg378
F1
sg379
I01
sg380
F2
sg381
F44.327099143206873
sg382
F89.5
sg383
F4108.5
sg242
I01
sg384
F2
sg385
F300
sg346
I00
sg386
S'centre'
p654
sg388
I00
sg389
I00
sg348
I00
sg390
F2
sg89
g249
sg391
I01
sg392
I01
sg393
F0
sg394
(iclasses.files
OpenShotFile
p655
(dp656
g81
F14999
sg82
S''
sg84
I0
sg85
S'/home/jeff/digital_media_class/dig_med/Proj1_intro_vid/thumbnail/d5323684-e6c1-11e6-8784-e8b1fc98bbfb_jpg_1.png'
p657
sg87
S'/home/jeff/digital_media_class/dig_med/Proj1_intro_vid/pics/kids/mel_austan.jpg'
p658
sg89
Nsg90
g595
sg92
I0
sg52
I960
sg93
g1
sg47
I960
sg94
F300
sg95
F29.970029970029969
sg96
I1
sg97
S''
sg98
(F29.970029970029969
I0
tp659
sg100
S''
sg50
S'd5323685-e6c1-11e6-8784-e8b1fc98bbfb'
p660
sbsg401
I00
sg402
F100
sg403
(lp661
sg405
F0
sg406
I00
sg85
S'/home/jeff/digital_media_class/dig_med/Proj1_intro_vid/thumbnail/d5323684-e6c1-11e6-8784-e8b1fc98bbfb_jpg_1.png'
p662
sg87
S'mel_austan.jpg'
p663
sg409
S'centre'
p664
sg244
I01
sg411
F2.5
sg50
S'242df37e-e6c2-11e6-8784-e8b1fc98bbfb'
p665
sba(iclasses.clip
clip
p666
(dp667
g362
g363
sg364
I00
sg365
I00
sg366
(dp668
g368
(iclasses.keyframe
keyframe
p669
(dp670
g47
F100
sS'x'
F0
sS'y'
F0
sg48
F1
sg49
I0
sg50
S'0a1ce71b-e6c2-11e6-8784-e8b1fc98bbfb'
p671
sg52
F100
sbsg372
(iclasses.keyframe
keyframe
p672
(dp673
g47
F100
sS'x'
F0
sS'y'
F0
sg48
F1
sg49
I-1
sg50
S'0a1ce71c-e6c2-11e6-8784-e8b1fc98bbfb'
p674
sg52
F100
sbssg376
F2
sg377
I00
sg378
F1
sg379
I01
sg380
F2
sg381
F46.827099143206858
sg382
F104.5
sg383
F4662.5
sg242
I01
sg384
F2
sg385
F300
sg346
I00
sg386
S'centre'
p675
sg388
I00
sg389
I00
sg348
I00
sg390
F2
sg89
g249
sg391
I01
sg392
I00
sg393
F0
sg394
(iclasses.files
OpenShotFile
p676
(dp677
g81
F14999
sg82
S''
sg84
I0
sg85
S'/home/jeff/digital_media_class/dig_med/Proj1_intro_vid/thumbnail/10fd8c8c-e6c0-11e6-8784-e8b1fc98bbfb_png_1.png'
p678
sg87
S'/home/jeff/digital_media_class/dig_med/Proj1_intro_vid/art/grandkids.png'
p679
sg89
Nsg90
g266
sg92
I0
sg52
I400
sg93
g1
sg47
I640
sg94
F300
sg95
F29.970029970029969
sg96
I1
sg97
S''
sg98
(F29.970029970029969
I0
tp680
sg100
S''
sg50
S'10fd8c8d-e6c0-11e6-8784-e8b1fc98bbfb'
p681
sbsg401
I00
sg402
F100
sg403
(lp682
sg405
F0
sg406
I00
sg85
S'/home/jeff/digital_media_class/dig_med/Proj1_intro_vid/thumbnail/10fd8c8c-e6c0-11e6-8784-e8b1fc98bbfb_png_1.png'
p683
sg87
S'grandkids.png'
p684
sg409
S'centre'
p685
sg244
I01
sg411
F1.5
sg50
S'0a1ce71a-e6c2-11e6-8784-e8b1fc98bbfb'
p686
sba(iclasses.clip
clip
p687
(dp688
g362
g363
sg364
I00
sg365
I00
sg366
(dp689
g368
(iclasses.keyframe
keyframe
p690
(dp691
g47
F100
sS'x'
F0
sS'y'
F0
sg48
F1
sg49
I0
sg50
S'9dbc8a89-e6c3-11e6-8784-e8b1fc98bbfb'
p692
sg52
F100
sbsg372
(iclasses.keyframe
keyframe
p693
(dp694
g47
F100
sS'x'
F0
sS'y'
F0
sg48
F1
sg49
I-1
sg50
S'9dbc8a8a-e6c3-11e6-8784-e8b1fc98bbfb'
p695
sg52
F100
sbssg376
F2
sg377
I00
sg378
F1
sg379
I01
sg380
F2
sg381
F48.327099143206858
sg382
F104.5
sg383
F5060.5
sg242
I01
sg384
F2
sg385
F300
sg346
I00
sg386
S'centre'
p696
sg388
I00
sg389
I00
sg348
I00
sg390
F2
sg89
g249
sg391
I01
sg392
I00
sg393
F0
sg394
(iclasses.files
OpenShotFile
p697
(dp698
g81
F14999
sg82
S''
sg84
I0
sg85
S'/home/jeff/digital_media_class/dig_med/Proj1_intro_vid/thumbnail/96373a7e-e6c3-11e6-8784-e8b1fc98bbfb_jpg_1.png'
p699
sg87
S'/home/jeff/digital_media_class/dig_med/Proj1_intro_vid/pics/grandkids/mason.jpg'
p700
sg89
Nsg90
g595
sg92
I0
sg52
I727
sg93
g1
sg47
I720
sg94
F300
sg95
F29.970029970029969
sg96
I1
sg97
S''
sg98
(F29.970029970029969
I0
tp701
sg100
S''
sg50
S'96373a7f-e6c3-11e6-8784-e8b1fc98bbfb'
p702
sbsg401
I00
sg402
F100
sg403
(lp703
sg405
F0
sg406
I00
sg85
S'/home/jeff/digital_media_class/dig_med/Proj1_intro_vid/thumbnail/96373a7e-e6c3-11e6-8784-e8b1fc98bbfb_jpg_1.png'
p704
sg87
S'mason.jpg'
p705
sg409
S'centre'
p706
sg244
I01
sg411
F2.75
sg50
S'9dbc8a88-e6c3-11e6-8784-e8b1fc98bbfb'
p707
sba(iclasses.clip
clip
p708
(dp709
g362
g363
sg364
I00
sg365
I00
sg366
(dp710
g368
(iclasses.keyframe
keyframe
p711
(dp712
g47
F100
sg48
F1
sS'y'
F0
sS'x'
F0
sg49
I0
sg50
S'c24d5b7b-e6c3-11e6-8784-e8b1fc98bbfb'
p713
sg52
F100
sbsg372
(iclasses.keyframe
keyframe
p714
(dp715
g47
F100
sg48
F1
sS'y'
F0
sS'x'
F0
sg49
I-1
sg50
S'c24d5b7c-e6c3-11e6-8784-e8b1fc98bbfb'
p716
sg52
F100
sbssg376
F2
sg377
I00
sg378
F1
sg379
I01
sg380
F2
sg381
F51.077099143206858
sg382
F109.5
sg383
F5312.5
sg242
I01
sg384
F2
sg385
F300
sg346
I00
sg386
S'centre'
p717
sg388
I00
sg389
I00
sg348
I00
sg390
F2
sg89
g249
sg391
I01
sg392
I00
sg393
F0
sg394
(iclasses.files
OpenShotFile
p718
(dp719
g81
F14999
sg82
S''
sg84
I0
sg85
S'/home/jeff/digital_media_class/dig_med/Proj1_intro_vid/thumbnail/96373a8a-e6c3-11e6-8784-e8b1fc98bbfb_jpg_1.png'
p720
sg87
S'/home/jeff/digital_media_class/dig_med/Proj1_intro_vid/pics/grandkids/masonbb.jpg'
p721
sg89
Nsg90
g595
sg92
I0
sg52
I526
sg93
g1
sg47
I526
sg94
F300
sg95
F29.970029970029969
sg96
I1
sg97
S''
sg98
(F29.970029970029969
I0
tp722
sg100
S''
sg50
S'96373a8b-e6c3-11e6-8784-e8b1fc98bbfb'
p723
sbsg401
I00
sg402
F100
sg403
(lp724
sg405
F0
sg406
I00
sg85
S'/home/jeff/digital_media_class/dig_med/Proj1_intro_vid/thumbnail/96373a8a-e6c3-11e6-8784-e8b1fc98bbfb_jpg_1.png'
p725
sg87
S'masonbb.jpg'
p726
sg409
S'centre'
p727
sg244
I01
sg411
F2.75
sg50
S'c24d5b7a-e6c3-11e6-8784-e8b1fc98bbfb'
p728
sba(iclasses.clip
clip
p729
(dp730
g362
g363
sg364
I00
sg365
I00
sg366
(dp731
g368
(iclasses.keyframe
keyframe
p732
(dp733
g47
F100
sg48
F1
sS'y'
F0
sS'x'
F0
sg49
I0
sg50
S'd78781c9-e6c3-11e6-8784-e8b1fc98bbfb'
p734
sg52
F100
sbsg372
(iclasses.keyframe
keyframe
p735
(dp736
g47
F100
sg48
F1
sS'y'
F0
sS'x'
F0
sg49
I-1
sg50
S'd78781ca-e6c3-11e6-8784-e8b1fc98bbfb'
p737
sg52
F100
sbssg376
F2
sg377
I00
sg378
F1
sg379
I01
sg380
F2
sg381
F53.827099143206858
sg382
F101.5
sg383
F5582.5
sg242
I01
sg384
F2
sg385
F300
sg346
I00
sg386
S'centre'
p738
sg388
I00
sg389
I00
sg348
I00
sg390
F2
sg89
g249
sg391
I01
sg392
I00
sg393
F0
sg394
(iclasses.files
OpenShotFile
p739
(dp740
g81
F14999
sg82
S''
sg84
I0
sg85
S'/home/jeff/digital_media_class/dig_med/Proj1_intro_vid/thumbnail/96373a88-e6c3-11e6-8784-e8b1fc98bbfb_jpg_1.png'
p741
sg87
S'/home/jeff/digital_media_class/dig_med/Proj1_intro_vid/pics/grandkids/kaiya.jpg'
p742
sg89
Nsg90
g595
sg92
I0
sg52
I719
sg93
g1
sg47
I1279
sg94
F300
sg95
F29.970029970029969
sg96
I1
sg97
S''
sg98
(F29.970029970029969
I0
tp743
sg100
S''
sg50
S'96373a89-e6c3-11e6-8784-e8b1fc98bbfb'
p744
sbsg401
I00
sg402
F100
sg403
(lp745
sg405
F0
sg406
I00
sg85
S'/home/jeff/digital_media_class/dig_med/Proj1_intro_vid/thumbnail/96373a88-e6c3-11e6-8784-e8b1fc98bbfb_jpg_1.png'
p746
sg87
S'kaiya.jpg'
p747
sg409
S'centre'
p748
sg244
I01
sg411
F2.75
sg50
S'd78781c8-e6c3-11e6-8784-e8b1fc98bbfb'
p749
sba(iclasses.clip
clip
p750
(dp751
g362
g363
sg364
I00
sg365
I00
sg366
(dp752
g368
(iclasses.keyframe
keyframe
p753
(dp754
g47
F100
sS'x'
F0
sS'y'
F0
sg48
F1
sg49
I0
sg50
S'2babfa9b-e6c4-11e6-8784-e8b1fc98bbfb'
p755
sg52
F100
sbsg372
(iclasses.keyframe
keyframe
p756
(dp757
g47
F100
sS'x'
F0
sS'y'
F0
sg48
F1
sg49
I-1
sg50
S'2babfa9c-e6c4-11e6-8784-e8b1fc98bbfb'
p758
sg52
F100
sbssg376
F2
sg377
I00
sg378
F1
sg379
I01
sg380
F2
sg381
F56.577099143206858
sg382
F107.5
sg383
F5876.5
sg242
I01
sg384
F2
sg385
F300
sg346
I00
sg386
S'centre'
p759
sg388
I00
sg389
I00
sg348
I00
sg390
F2
sg89
g249
sg391
I01
sg392
I00
sg393
F0
sg394
(iclasses.files
OpenShotFile
p760
(dp761
g81
F14999
sg82
S''
sg84
I0
sg85
S'/home/jeff/digital_media_class/dig_med/Proj1_intro_vid/thumbnail/96373a80-e6c3-11e6-8784-e8b1fc98bbfb_jpg_1.png'
p762
sg87
S'/home/jeff/digital_media_class/dig_med/Proj1_intro_vid/pics/grandkids/ali.jpg'
p763
sg89
Nsg90
g595
sg92
I0
sg52
I1350
sg93
g1
sg47
I1080
sg94
F300
sg95
F29.970029970029969
sg96
I1
sg97
S''
sg98
(F29.970029970029969
I0
tp764
sg100
S''
sg50
S'96373a81-e6c3-11e6-8784-e8b1fc98bbfb'
p765
sbsg401
I00
sg402
F100
sg403
(lp766
sg405
F0
sg406
I00
sg85
S'/home/jeff/digital_media_class/dig_med/Proj1_intro_vid/thumbnail/96373a80-e6c3-11e6-8784-e8b1fc98bbfb_jpg_1.png'
p767
sg87
S'ali.jpg'
p768
sg409
S'centre'
p769
sg244
I01
sg411
F2.75
sg50
S'2babfa9a-e6c4-11e6-8784-e8b1fc98bbfb'
p770
sba(iclasses.clip
clip
p771
(dp772
g362
g363
sg364
I00
sg365
I00
sg366
(dp773
g368
(iclasses.keyframe
keyframe
p774
(dp775
g47
F100
sg48
F1
sS'y'
F0
sS'x'
F0
sg49
I0
sg50
S'14813bfd-e6cc-11e6-8784-e8b1fc98bbfb'
p776
sg52
F100
sbsg372
(iclasses.keyframe
keyframe
p777
(dp778
g47
F100
sg48
F1
sS'y'
F0
sS'x'
F0
sg49
I-1
sg50
S'14813bfe-e6cc-11e6-8784-e8b1fc98bbfb'
p779
sg52
F100
sbssg376
F2
sg377
I00
sg378
F1
sg379
I01
sg380
F2
sg381
F59.327099143206858
sg382
F49.5
sg383
F935.79008567931396
sg242
I01
sg384
F2
sg385
F300
sg386
S'centre'
p780
sg388
I00
sg389
I00
sg348
I00
sg390
F2
sg89
g249
sg391
I01
sg392
I00
sg393
F0
sg394
(iclasses.files
OpenShotFile
p781
(dp782
g81
F14999
sg82
S''
sg84
I0
sg85
S'/home/jeff/digital_media_class/dig_med/Proj1_intro_vid/thumbnail/96373a82-e6c3-11e6-8784-e8b1fc98bbfb_jpg_1.png'
p783
sg87
S'/home/jeff/digital_media_class/dig_med/Proj1_intro_vid/pics/grandkids/bri.jpg'
p784
sg89
Nsg90
g595
sg92
I0
sg52
I725
sg93
g1
sg47
I567
sg94
F300
sg95
F29.970029970029969
sg96
I1
sg97
S''
sg98
(F29.970029970029969
I0
tp785
sg100
S''
sg50
S'96373a83-e6c3-11e6-8784-e8b1fc98bbfb'
p786
sbsg401
I00
sg402
F100
sg403
(lp787
sg405
F0
sg406
I00
sg85
S'/home/jeff/digital_media_class/dig_med/Proj1_intro_vid/thumbnail/96373a82-e6c3-11e6-8784-e8b1fc98bbfb_jpg_1.png'
p788
sg87
S'bri.jpg'
p789
sg409
S'centre'
p790
sg244
I01
sg411
F2.75
sg50
S'14813bfc-e6cc-11e6-8784-e8b1fc98bbfb'
p791
sba(iclasses.clip
clip
p792
(dp793
g362
g363
sg364
I00
sg365
I00
sg366
(dp794
g368
(iclasses.keyframe
keyframe
p795
(dp796
g47
F100
sS'x'
F0
sS'y'
F0
sg48
F1
sg49
I0
sg50
S'3a6c31ef-e6c4-11e6-8784-e8b1fc98bbfb'
p797
sg52
F100
sbsg372
(iclasses.keyframe
keyframe
p798
(dp799
g47
F100
sS'x'
F0
sS'y'
F0
sg48
F1
sg49
I-1
sg50
S'3a6c31f0-e6c4-11e6-8784-e8b1fc98bbfb'
p800
sg52
F100
sbssg376
F2
sg377
I00
sg378
F1
sg379
I01
sg380
F2
sg381
F62.077099143206858
sg382
F95.5
sg383
F6662.4999999999991
sg242
I01
sg384
F2
sg385
F300
sg346
I00
sg386
S'centre'
p801
sg388
I00
sg389
I00
sg348
I00
sg390
F2
sg89
g249
sg391
I01
sg392
I00
sg393
F0
sg394
(iclasses.files
OpenShotFile
p802
(dp803
g81
F14999
sg82
S''
sg84
I0
sg85
S'/home/jeff/digital_media_class/dig_med/Proj1_intro_vid/thumbnail/96373a8e-e6c3-11e6-8784-e8b1fc98bbfb_jpg_1.png'
p804
sg87
S'/home/jeff/digital_media_class/dig_med/Proj1_intro_vid/pics/grandkids/brizilla.jpg'
p805
sg89
Nsg90
g595
sg92
I0
sg52
I954
sg93
g1
sg47
I954
sg94
F300
sg95
F29.970029970029969
sg96
I1
sg97
S''
sg98
(F29.970029970029969
I0
tp806
sg100
S''
sg50
S'96373a8f-e6c3-11e6-8784-e8b1fc98bbfb'
p807
sbsg401
I00
sg402
F100
sg403
(lp808
sg405
F0
sg406
I00
sg85
S'/home/jeff/digital_media_class/dig_med/Proj1_intro_vid/thumbnail/96373a8e-e6c3-11e6-8784-e8b1fc98bbfb_jpg_1.png'
p809
sg87
S'brizilla.jpg'
p810
sg409
S'centre'
p811
sg244
I01
sg411
F2.75
sg50
S'3a6c31ee-e6c4-11e6-8784-e8b1fc98bbfb'
p812
sba(iclasses.clip
clip
p813
(dp814
g362
g363
sg364
I00
sg365
I00
sg366
(dp815
g368
(iclasses.keyframe
keyframe
p816
(dp817
g47
F100
sg48
F1
sS'y'
F0
sS'x'
F0
sg49
I0
sg50
S'498acf3d-e6c4-11e6-8784-e8b1fc98bbfb'
p818
sg52
F100
sbsg372
(iclasses.keyframe
keyframe
p819
(dp820
g47
F100
sg48
F1
sS'y'
F0
sS'x'
F0
sg49
I-1
sg50
S'498acf3e-e6c4-11e6-8784-e8b1fc98bbfb'
p821
sg52
F100
sbssg376
F2
sg377
I00
sg378
F1
sg379
I01
sg380
F2
sg381
F64.827099143206866
sg382
F107.5
sg383
F6952.5
sg242
I01
sg384
F2
sg385
F300
sg346
I00
sg386
S'centre'
p822
sg388
I00
sg389
I00
sg348
I00
sg390
F2
sg89
g249
sg391
I01
sg392
I01
sg393
F0
sg394
(iclasses.files
OpenShotFile
p823
(dp824
g81
F14999
sg82
S''
sg84
I0
sg85
S'/home/jeff/digital_media_class/dig_med/Proj1_intro_vid/thumbnail/96373a84-e6c3-11e6-8784-e8b1fc98bbfb_jpg_1.png'
p825
sg87
S'/home/jeff/digital_media_class/dig_med/Proj1_intro_vid/pics/grandkids/kimber.jpg'
p826
sg89
Nsg90
g595
sg92
I0
sg52
I960
sg93
g1
sg47
I960
sg94
F300
sg95
F29.970029970029969
sg96
I1
sg97
S''
sg98
(F29.970029970029969
I0
tp827
sg100
S''
sg50
S'96373a85-e6c3-11e6-8784-e8b1fc98bbfb'
p828
sbsg401
I00
sg402
F100
sg403
(lp829
sg405
F0
sg406
I00
sg85
S'/home/jeff/digital_media_class/dig_med/Proj1_intro_vid/thumbnail/96373a84-e6c3-11e6-8784-e8b1fc98bbfb_jpg_1.png'
p830
sg87
S'kimber.jpg'
p831
sg409
S'centre'
p832
sg244
I01
sg411
F3
sg50
S'498acf3c-e6c4-11e6-8784-e8b1fc98bbfb'
p833
sba(iclasses.clip
clip
p834
(dp835
g362
g363
sg364
I00
sg365
I00
sg366
(dp836
g368
(iclasses.keyframe
keyframe
p837
(dp838
g47
F100
sg48
F1
sS'y'
F0
sS'x'
F0
sg49
I0
sg50
S'53ee1ef3-e6c4-11e6-8784-e8b1fc98bbfb'
p839
sg52
F100
sbsg372
(iclasses.keyframe
keyframe
p840
(dp841
g47
F100
sg48
F1
sS'y'
F0
sS'x'
F0
sg49
I-1
sg50
S'53ee1ef4-e6c4-11e6-8784-e8b1fc98bbfb'
p842
sg52
F100
sbssg376
F2
sg377
I00
sg378
F1
sg379
I01
sg380
F2
sg381
F67.827099143206866
sg382
F99.5
sg383
F7243.5
sg242
I01
sg384
F2
sg385
F300
sg346
I00
sg386
S'centre'
p843
sg388
I00
sg389
I00
sg348
I00
sg390
F2
sg89
g249
sg391
I01
sg392
I01
sg393
F0
sg394
(iclasses.files
OpenShotFile
p844
(dp845
g81
F14999
sg82
S''
sg84
I0
sg85
S'/home/jeff/digital_media_class/dig_med/Proj1_intro_vid/thumbnail/96373a86-e6c3-11e6-8784-e8b1fc98bbfb_jpg_1.png'
p846
sg87
S'/home/jeff/digital_media_class/dig_med/Proj1_intro_vid/pics/grandkids/kimbershiv.jpg'
p847
sg89
Nsg90
g595
sg92
I0
sg52
I1280
sg93
g1
sg47
I960
sg94
F300
sg95
F29.970029970029969
sg96
I1
sg97
S''
sg98
(F29.970029970029969
I0
tp848
sg100
S''
sg50
S'96373a87-e6c3-11e6-8784-e8b1fc98bbfb'
p849
sbsg401
I00
sg402
F100
sg403
(lp850
sg405
F0
sg406
I00
sg85
S'/home/jeff/digital_media_class/dig_med/Proj1_intro_vid/thumbnail/96373a86-e6c3-11e6-8784-e8b1fc98bbfb_jpg_1.png'
p851
sg87
S'kimbershiv.jpg'
p852
sg409
S'centre'
p853
sg244
I01
sg411
F3
sg50
S'53ee1ef2-e6c4-11e6-8784-e8b1fc98bbfb'
p854
sba(iclasses.clip
clip
p855
(dp856
g362
g363
sg364
I00
sg365
I00
sg366
(dp857
g368
(iclasses.keyframe
keyframe
p858
(dp859
g47
F100
sS'x'
F0
sS'y'
F0
sg48
F1
sg49
I0
sg50
S'661a8fc1-e6c4-11e6-8784-e8b1fc98bbfb'
p860
sg52
F100
sbsg372
(iclasses.keyframe
keyframe
p861
(dp862
g47
F100
sS'x'
F0
sS'y'
F0
sg48
F1
sg49
I-1
sg50
S'661a8fc2-e6c4-11e6-8784-e8b1fc98bbfb'
p863
sg52
F100
sbssg376
F2
sg377
I00
sg378
F1
sg379
I01
sg380
F2
sg381
F70.827099143206866
sg382
F93.5
sg383
F7615.5
sg242
I01
sg384
F2
sg385
F300
sg346
I00
sg386
S'centre'
p864
sg388
I00
sg389
I00
sg348
I00
sg390
F2
sg89
g249
sg391
I01
sg392
I00
sg393
F0
sg394
(iclasses.files
OpenShotFile
p865
(dp866
g81
F14999
sg82
S''
sg84
I0
sg85
S'/home/jeff/digital_media_class/dig_med/Proj1_intro_vid/thumbnail/96373a8c-e6c3-11e6-8784-e8b1fc98bbfb_jpg_1.png'
p867
sg87
S'/home/jeff/digital_media_class/dig_med/Proj1_intro_vid/pics/grandkids/twins.jpg'
p868
sg89
Nsg90
g595
sg92
I0
sg52
I959
sg93
g1
sg47
I1279
sg94
F300
sg95
F29.970029970029969
sg96
I1
sg97
S''
sg98
(F29.970029970029969
I0
tp869
sg100
S''
sg50
S'96373a8d-e6c3-11e6-8784-e8b1fc98bbfb'
p870
sbsg401
I00
sg402
F100
sg403
(lp871
sg405
F0
sg406
I00
sg85
S'/home/jeff/digital_media_class/dig_med/Proj1_intro_vid/thumbnail/96373a8c-e6c3-11e6-8784-e8b1fc98bbfb_jpg_1.png'
p872
sg87
S'twins.jpg'
p873
sg409
S'centre'
p874
sg244
I01
sg411
F2.75
sg50
S'661a8fc0-e6c4-11e6-8784-e8b1fc98bbfb'
p875
sba(iclasses.clip
clip
p876
(dp877
g362
g363
sg364
I00
sg365
I00
sg366
(dp878
g368
(iclasses.keyframe
keyframe
p879
(dp880
g47
F100
sg48
F1
sS'y'
F0
sS'x'
F0
sg49
I0
sg50
S'708c2073-e6c4-11e6-8784-e8b1fc98bbfb'
p881
sg52
F100
sbsg372
(iclasses.keyframe
keyframe
p882
(dp883
g47
F100
sg48
F1
sS'y'
F0
sS'x'
F0
sg49
I-1
sg50
S'708c2074-e6c4-11e6-8784-e8b1fc98bbfb'
p884
sg52
F100
sbssg376
F2
sg377
I00
sg378
F1
sg379
I01
sg380
F2
sg381
F73.577099143206866
sg382
F111.5
sg383
F7589.5
sg242
I01
sg384
F2
sg385
F300
sg346
I00
sg386
S'centre'
p885
sg388
I00
sg389
I00
sg348
I00
sg390
F2
sg89
g249
sg391
I01
sg392
I01
sg393
F0
sg394
(iclasses.files
OpenShotFile
p886
(dp887
g81
F14999
sg82
S''
sg84
I0
sg85
S'/home/jeff/digital_media_class/dig_med/Proj1_intro_vid/thumbnail/96373a94-e6c3-11e6-8784-e8b1fc98bbfb_jpg_1.png'
p888
sg87
S'/home/jeff/digital_media_class/dig_med/Proj1_intro_vid/pics/grandkids/girls.jpg'
p889
sg89
Nsg90
g595
sg92
I0
sg52
I3024
sg93
g1
sg47
I3024
sg94
F300
sg95
F29.970029970029969
sg96
I1
sg97
S''
sg98
(F29.970029970029969
I0
tp890
sg100
S''
sg50
S'96373a95-e6c3-11e6-8784-e8b1fc98bbfb'
p891
sbsg401
I00
sg402
F100
sg403
(lp892
sg405
F0
sg406
I00
sg85
S'/home/jeff/digital_media_class/dig_med/Proj1_intro_vid/thumbnail/96373a94-e6c3-11e6-8784-e8b1fc98bbfb_jpg_1.png'
p893
sg87
S'girls.jpg'
p894
sg409
S'centre'
p895
sg244
I01
sg411
F2.75
sg50
S'708c2072-e6c4-11e6-8784-e8b1fc98bbfb'
p896
sba(iclasses.clip
clip
p897
(dp898
g362
g363
sg364
I00
sg365
I00
sg366
(dp899
g368
(iclasses.keyframe
keyframe
p900
(dp901
g47
F100
sg48
F1
sS'y'
F0
sS'x'
F0
sg49
I0
sg50
S'7cd239f3-e6c4-11e6-8784-e8b1fc98bbfb'
p902
sg52
F100
sbsg372
(iclasses.keyframe
keyframe
p903
(dp904
g47
F100
sg48
F1
sS'y'
F0
sS'x'
F0
sg49
I-1
sg50
S'7cd239f4-e6c4-11e6-8784-e8b1fc98bbfb'
p905
sg52
F100
sbssg376
F2
sg377
I00
sg378
F1
sg379
I01
sg380
F2
sg381
F76.327099143206866
sg382
F101.5
sg383
F8303.5
sg242
I01
sg384
F2
sg385
F300
sg346
I00
sg386
S'centre'
p906
sg388
I00
sg389
I00
sg348
I00
sg390
F2
sg89
g249
sg391
I01
sg392
I00
sg393
F0
sg394
(iclasses.files
OpenShotFile
p907
(dp908
g81
F14999
sg82
S''
sg84
I0
sg85
S'/home/jeff/digital_media_class/dig_med/Proj1_intro_vid/thumbnail/96373a90-e6c3-11e6-8784-e8b1fc98bbfb_JPG_1.png'
p909
sg87
S'/home/jeff/digital_media_class/dig_med/Proj1_intro_vid/pics/grandkids/m_k.JPG'
p910
sg89
Nsg90
g595
sg92
I0
sg52
I2048
sg93
g1
sg47
I1462
sg94
F300
sg95
F29.970029970029969
sg96
I1
sg97
S''
sg98
(F29.970029970029969
I0
tp911
sg100
S''
sg50
S'96373a91-e6c3-11e6-8784-e8b1fc98bbfb'
p912
sbsg401
I00
sg402
F100
sg403
(lp913
sg405
F0
sg406
I00
sg85
S'/home/jeff/digital_media_class/dig_med/Proj1_intro_vid/thumbnail/96373a90-e6c3-11e6-8784-e8b1fc98bbfb_JPG_1.png'
p914
sg87
S'm_k.JPG'
p915
sg409
S'centre'
p916
sg244
I01
sg411
F2.75
sg50
S'7cd239f2-e6c4-11e6-8784-e8b1fc98bbfb'
p917
sba(iclasses.clip
clip
p918
(dp919
g362
g363
sg364
I00
sg365
I00
sg366
(dp920
g368
(iclasses.keyframe
keyframe
p921
(dp922
g47
F100
sg48
F1
sS'y'
F0
sS'x'
F0
sg49
I0
sg50
S'8a1ffd4d-e6c4-11e6-8784-e8b1fc98bbfb'
p923
sg52
F100
sbsg372
(iclasses.keyframe
keyframe
p924
(dp925
g47
F100
sg48
F1
sS'y'
F0
sS'x'
F0
sg49
I-1
sg50
S'8a1ffd4e-e6c4-11e6-8784-e8b1fc98bbfb'
p926
sg52
F100
sbssg376
F2
sg377
I00
sg378
F1
sg379
I01
sg380
F2
sg381
F79.077099143206866
sg382
F95.5
sg383
F8577.5
sg242
I01
sg384
F2
sg385
F300
sg346
I00
sg386
S'centre'
p927
sg388
I00
sg389
I00
sg348
I00
sg390
F2
sg89
g249
sg391
I01
sg392
I00
sg393
F0
sg394
(iclasses.files
OpenShotFile
p928
(dp929
g81
F14999
sg82
S''
sg84
I0
sg85
S'/home/jeff/digital_media_class/dig_med/Proj1_intro_vid/thumbnail/96373a92-e6c3-11e6-8784-e8b1fc98bbfb_JPG_1.png'
p930
sg87
S'/home/jeff/digital_media_class/dig_med/Proj1_intro_vid/pics/grandkids/bri1.JPG'
p931
sg89
Nsg90
g595
sg92
I0
sg52
I720
sg93
g1
sg47
I720
sg94
F300
sg95
F29.970029970029969
sg96
I1
sg97
S''
sg98
(F29.970029970029969
I0
tp932
sg100
S''
sg50
S'96373a93-e6c3-11e6-8784-e8b1fc98bbfb'
p933
sbsg401
I00
sg402
F100
sg403
(lp934
sg405
F0
sg406
I00
sg85
S'/home/jeff/digital_media_class/dig_med/Proj1_intro_vid/thumbnail/96373a92-e6c3-11e6-8784-e8b1fc98bbfb_JPG_1.png'
p935
sg87
S'bri1.JPG'
p936
sg409
S'centre'
p937
sg244
I01
sg411
F3
sg50
S'8a1ffd4c-e6c4-11e6-8784-e8b1fc98bbfb'
p938
sba(iclasses.clip
clip
p939
(dp940
g362
g363
sg364
I00
sg365
I00
sg366
(dp941
g368
(iclasses.keyframe
keyframe
p942
(dp943
g47
F100
sg48
F1
sS'y'
F0
sS'x'
F0
sg49
I0
sg50
S'bec4e135-e6c4-11e6-8784-e8b1fc98bbfb'
p944
sg52
F100
sbsg372
(iclasses.keyframe
keyframe
p945
(dp946
g47
F100
sg48
F1
sS'y'
F0
sS'x'
F0
sg49
I-1
sg50
S'bec4e136-e6c4-11e6-8784-e8b1fc98bbfb'
p947
sg52
F100
sbssg376
F2
sg377
I00
sg378
F1
sg379
I01
sg380
F2
sg381
F82.077099143206866
sg382
F116.5
sg383
F8859.5
sg242
I01
sg384
F2
sg385
F300
sg386
S'centre'
p948
sg388
I00
sg389
I00
sg348
I00
sg390
F2
sg89
g249
sg391
I01
sg392
I00
sg393
F0
sg394
(iclasses.files
OpenShotFile
p949
(dp950
g81
F14999
sg82
S''
sg84
I0
sg85
S'/home/jeff/digital_media_class/dig_med/Proj1_intro_vid/thumbnail/10fd8c8e-e6c0-11e6-8784-e8b1fc98bbfb_png_1.png'
p951
sg87
S'/home/jeff/digital_media_class/dig_med/Proj1_intro_vid/art/usmc.png'
p952
sg89
Nsg90
g266
sg92
I0
sg52
I400
sg93
g1
sg47
I640
sg94
F300
sg95
F29.970029970029969
sg96
I1
sg97
S''
sg98
(F29.970029970029969
I0
tp953
sg100
S''
sg50
S'10fd8c8f-e6c0-11e6-8784-e8b1fc98bbfb'
p954
sbsg401
I00
sg402
F100
sg403
(lp955
sg405
F0
sg406
I00
sg85
S'/home/jeff/digital_media_class/dig_med/Proj1_intro_vid/thumbnail/10fd8c8e-e6c0-11e6-8784-e8b1fc98bbfb_png_1.png'
p956
sg87
S'usmc.png'
p957
sg409
S'centre'
p958
sg244
I01
sg411
F2
sg50
S'bec4e134-e6c4-11e6-8784-e8b1fc98bbfb'
p959
sba(iclasses.clip
clip
p960
(dp961
g362
g363
sg364
I00
sg365
I00
sg366
(dp962
g368
(iclasses.keyframe
keyframe
p963
(dp964
g47
F100
sg48
F1
sS'y'
F0
sS'x'
F0
sg49
I0
sg50
S'f776b599-e6c4-11e6-8784-e8b1fc98bbfb'
p965
sg52
F100
sbsg372
(iclasses.keyframe
keyframe
p966
(dp967
g47
F100
sg48
F1
sS'y'
F0
sS'x'
F0
sg49
I-1
sg50
S'f776b59a-e6c4-11e6-8784-e8b1fc98bbfb'
p968
sg52
F100
sbssg376
F2
sg377
I00
sg378
F1
sg379
I01
sg380
F2
sg381
F84.077099143206866
sg382
F49.5
sg383
F517.79008567931214
sg242
I01
sg384
F2
sg385
F300
sg386
S'centre'
p969
sg388
I00
sg389
I00
sg348
I00
sg390
F2
sg89
g249
sg391
I01
sg392
I00
sg393
F0
sg394
(iclasses.files
OpenShotFile
p970
(dp971
g81
F14999
sg82
S''
sg84
I0
sg85
S'/home/jeff/digital_media_class/dig_med/Proj1_intro_vid/thumbnail/f2baa0be-e6c4-11e6-8784-e8b1fc98bbfb_jpg_1.png'
p972
sg87
S'/home/jeff/digital_media_class/dig_med/Proj1_intro_vid/pics/usmc/usmctit.jpg'
p973
sg89
Nsg90
g595
sg92
I0
sg52
I1200
sg93
g1
sg47
I1920
sg94
F300
sg95
F29.970029970029969
sg96
I1
sg97
S''
sg98
(F29.970029970029969
I0
tp974
sg100
S''
sg50
S'f2baa0bf-e6c4-11e6-8784-e8b1fc98bbfb'
p975
sbsg401
I00
sg402
F100
sg403
(lp976
sg405
F0
sg406
I00
sg85
S'/home/jeff/digital_media_class/dig_med/Proj1_intro_vid/thumbnail/f2baa0be-e6c4-11e6-8784-e8b1fc98bbfb_jpg_1.png'
p977
sg87
S'usmctit.jpg'
p978
sg409
S'centre'
p979
sg244
I01
sg411
F2
sg50
S'f776b598-e6c4-11e6-8784-e8b1fc98bbfb'
p980
sba(iclasses.clip
clip
p981
(dp982
g362
g363
sg364
I00
sg365
I00
sg366
(dp983
g368
(iclasses.keyframe
keyframe
p984
(dp985
g47
F100
sS'x'
F0
sS'y'
F0
sg48
F1
sg49
I0
sg50
S'01393b8d-e6c5-11e6-8784-e8b1fc98bbfb'
p986
sg52
F100
sbsg372
(iclasses.keyframe
keyframe
p987
(dp988
g47
F100
sS'x'
F0
sS'y'
F0
sg48
F1
sg49
I-1
sg50
S'01393b8e-e6c5-11e6-8784-e8b1fc98bbfb'
p989
sg52
F100
sbssg376
F2
sg377
I00
sg378
F1
sg379
I01
sg380
F2
sg381
F86.077099143206866
sg382
F113.5
sg383
F8763.5
sg242
I01
sg384
F2
sg385
F300
sg386
S'centre'
p990
sg388
I00
sg389
I00
sg348
I00
sg390
F2
sg89
g249
sg391
I01
sg392
I00
sg393
F0
sg394
(iclasses.files
OpenShotFile
p991
(dp992
g81
F14999
sg82
S''
sg84
I0
sg85
S'/home/jeff/digital_media_class/dig_med/Proj1_intro_vid/thumbnail/f2baa0c2-e6c4-11e6-8784-e8b1fc98bbfb_jpg_1.png'
p993
sg87
S'/home/jeff/digital_media_class/dig_med/Proj1_intro_vid/pics/usmc/usmcme.jpg'
p994
sg89
Nsg90
g595
sg92
I0
sg52
I960
sg93
g1
sg47
I716
sg94
F300
sg95
F29.970029970029969
sg96
I1
sg97
S''
sg98
(F29.970029970029969
I0
tp995
sg100
S''
sg50
S'f2baa0c3-e6c4-11e6-8784-e8b1fc98bbfb'
p996
sbsg401
I00
sg402
F100
sg403
(lp997
sg405
F0
sg406
I00
sg85
S'/home/jeff/digital_media_class/dig_med/Proj1_intro_vid/thumbnail/f2baa0c2-e6c4-11e6-8784-e8b1fc98bbfb_jpg_1.png'
p998
sg87
S'usmcme.jpg'
p999
sg409
S'centre'
p1000
sg244
I01
sg411
F2.5
sg50
S'01393b8c-e6c5-11e6-8784-e8b1fc98bbfb'
p1001
sba(iclasses.clip
clip
p1002
(dp1003
g362
g363
sg364
I00
sg365
I00
sg366
(dp1004
g368
(iclasses.keyframe
keyframe
p1005
(dp1006
g47
F100
sS'x'
F0
sS'y'
F0
sg48
F1
sg49
I0
sg50
S'1254b16d-e6c5-11e6-8784-e8b1fc98bbfb'
p1007
sg52
F100
sbsg372
(iclasses.keyframe
keyframe
p1008
(dp1009
g47
F100
sS'x'
F0
sS'y'
F0
sg48
F1
sg49
I-1
sg50
S'1254b16e-e6c5-11e6-8784-e8b1fc98bbfb'
p1010
sg52
F100
sbssg376
F2
sg377
I00
sg378
F1
sg379
I01
sg380
F2
sg381
F88.577099143206866
sg382
F85.5
sg383
F8936.5
sg242
I01
sg384
F2
sg385
F300
sg346
I00
sg386
S'centre'
p1011
sg388
I00
sg389
I00
sg348
I00
sg390
F2
sg89
g249
sg391
I01
sg392
I01
sg393
F0
sg394
(iclasses.files
OpenShotFile
p1012
(dp1013
g81
F14999
sg82
S''
sg84
I0
sg85
S'/home/jeff/digital_media_class/dig_med/Proj1_intro_vid/thumbnail/f2baa0c0-e6c4-11e6-8784-e8b1fc98bbfb_jpg_1.png'
p1014
sg87
S'/home/jeff/digital_media_class/dig_med/Proj1_intro_vid/pics/usmc/mcwed.jpg'
p1015
sg89
Nsg90
g595
sg92
I0
sg52
I960
sg93
g1
sg47
I960
sg94
F300
sg95
F29.970029970029969
sg96
I1
sg97
S''
sg98
(F29.970029970029969
I0
tp1016
sg100
S''
sg50
S'f2baa0c1-e6c4-11e6-8784-e8b1fc98bbfb'
p1017
sbsg401
I00
sg402
F100
sg403
(lp1018
sg405
F0
sg406
I00
sg85
S'/home/jeff/digital_media_class/dig_med/Proj1_intro_vid/thumbnail/f2baa0c0-e6c4-11e6-8784-e8b1fc98bbfb_jpg_1.png'
p1019
sg87
S'mcwed.jpg'
p1020
sg409
S'centre'
p1021
sg244
I01
sg411
F2.5
sg50
S'1254b16c-e6c5-11e6-8784-e8b1fc98bbfb'
p1022
sba(iclasses.clip
clip
p1023
(dp1024
g362
g363
sg364
I00
sg365
I00
sg366
(dp1025
g368
(iclasses.keyframe
keyframe
p1026
(dp1027
g47
F100
sS'x'
F0
sS'y'
F0
sg48
F1
sg49
I0
sg50
S'20bb88ad-e6c5-11e6-8784-e8b1fc98bbfb'
p1028
sg52
F100
sbsg372
(iclasses.keyframe
keyframe
p1029
(dp1030
g47
F100
sS'x'
F0
sS'y'
F0
sg48
F1
sg49
I-1
sg50
S'20bb88ae-e6c5-11e6-8784-e8b1fc98bbfb'
p1031
sg52
F100
sbssg376
F2
sg377
I00
sg378
F1
sg379
I01
sg380
F2
sg381
F91.077099143206866
sg382
F94.5
sg383
F9165.5
sg242
I01
sg384
F2
sg385
F300
sg346
I00
sg386
S'centre'
p1032
sg388
I00
sg389
I00
sg348
I00
sg390
F2
sg89
g249
sg391
I01
sg392
I01
sg393
F0
sg394
(iclasses.files
OpenShotFile
p1033
(dp1034
g81
F14999
sg82
S''
sg84
I0
sg85
S'/home/jeff/digital_media_class/dig_med/Proj1_intro_vid/thumbnail/f2baa0ca-e6c4-11e6-8784-e8b1fc98bbfb_jpg_1.png'
p1035
sg87
S'/home/jeff/digital_media_class/dig_med/Proj1_intro_vid/pics/usmc/mcball.jpg'
p1036
sg89
Nsg90
g595
sg92
I0
sg52
I2070
sg93
g1
sg47
I1452
sg94
F300
sg95
F29.970029970029969
sg96
I1
sg97
S''
sg98
(F29.970029970029969
I0
tp1037
sg100
S''
sg50
S'f2baa0cb-e6c4-11e6-8784-e8b1fc98bbfb'
p1038
sbsg401
I00
sg402
F100
sg403
(lp1039
sg405
F0
sg406
I00
sg85
S'/home/jeff/digital_media_class/dig_med/Proj1_intro_vid/thumbnail/f2baa0ca-e6c4-11e6-8784-e8b1fc98bbfb_jpg_1.png'
p1040
sg87
S'mcball.jpg'
p1041
sg409
S'centre'
p1042
sg244
I01
sg411
F2.5
sg50
S'20bb88ac-e6c5-11e6-8784-e8b1fc98bbfb'
p1043
sba(iclasses.clip
clip
p1044
(dp1045
g362
g363
sg364
I00
sg365
I00
sg366
(dp1046
g368
(iclasses.keyframe
keyframe
p1047
(dp1048
g47
F100
sS'x'
F0
sS'y'
F0
sg48
F1
sg49
I0
sg50
S'2f4c2c51-e6c5-11e6-8784-e8b1fc98bbfb'
p1049
sg52
F100
sbsg372
(iclasses.keyframe
keyframe
p1050
(dp1051
g47
F100
sS'x'
F0
sS'y'
F0
sg48
F1
sg49
I-1
sg50
S'2f4c2c52-e6c5-11e6-8784-e8b1fc98bbfb'
p1052
sg52
F100
sbssg376
F2
sg377
I00
sg378
F1
sg379
I01
sg380
F2
sg381
F93.547099143206864
sg382
F107.5
sg383
F9554.5
sg242
I01
sg384
F2
sg385
F300
sg346
I00
sg386
S'centre'
p1053
sg388
I00
sg389
I00
sg348
I00
sg390
F2
sg89
g249
sg391
I01
sg392
I00
sg393
F0
sg394
(iclasses.files
OpenShotFile
p1054
(dp1055
g81
F14999
sg82
S''
sg84
I0
sg85
S'/home/jeff/digital_media_class/dig_med/Proj1_intro_vid/thumbnail/f2baa0c8-e6c4-11e6-8784-e8b1fc98bbfb_jpg_1.png'
p1056
sg87
S'/home/jeff/digital_media_class/dig_med/Proj1_intro_vid/pics/usmc/nam.jpg'
p1057
sg89
Nsg90
g595
sg92
I0
sg52
I1500
sg93
g1
sg47
I2100
sg94
F300
sg95
F29.970029970029969
sg96
I1
sg97
S''
sg98
(F29.970029970029969
I0
tp1058
sg100
S''
sg50
S'f2baa0c9-e6c4-11e6-8784-e8b1fc98bbfb'
p1059
sbsg401
I00
sg402
F100
sg403
(lp1060
sg405
F0
sg406
I00
sg85
S'/home/jeff/digital_media_class/dig_med/Proj1_intro_vid/thumbnail/f2baa0c8-e6c4-11e6-8784-e8b1fc98bbfb_jpg_1.png'
p1061
sg87
S'nam.jpg'
p1062
sg409
S'centre'
p1063
sg244
I01
sg411
F2.2000000000000002
sg50
S'2f4c2c50-e6c5-11e6-8784-e8b1fc98bbfb'
p1064
sba(iclasses.clip
clip
p1065
(dp1066
g362
g363
sg364
I00
sg365
I00
sg366
(dp1067
g368
(iclasses.keyframe
keyframe
p1068
(dp1069
g47
F100
sg48
F1
sS'y'
F0
sS'x'
F0
sg49
I0
sg50
S'50a06269-e6c5-11e6-8784-e8b1fc98bbfb'
p1070
sg52
F100
sbsg372
(iclasses.keyframe
keyframe
p1071
(dp1072
g47
F100
sg48
F1
sS'y'
F0
sS'x'
F0
sg49
I-1
sg50
S'50a0626a-e6c5-11e6-8784-e8b1fc98bbfb'
p1073
sg52
F100
sbssg376
F2
sg377
I00
sg378
F1
sg379
I01
sg380
F2
sg381
F95.747099143206867
sg382
F111.5
sg383
F9753.5
sg242
I01
sg384
F2
sg385
F300
sg346
I00
sg386
S'centre'
p1074
sg388
I00
sg389
I00
sg348
I00
sg390
F2
sg89
g249
sg391
I01
sg392
I00
sg393
F0
sg394
(iclasses.files
OpenShotFile
p1075
(dp1076
g81
F14999
sg82
S''
sg84
I0
sg85
S'/home/jeff/digital_media_class/dig_med/Proj1_intro_vid/thumbnail/f2baa0c4-e6c4-11e6-8784-e8b1fc98bbfb_jpg_1.png'
p1077
sg87
S'/home/jeff/digital_media_class/dig_med/Proj1_intro_vid/pics/usmc/fldusmc.jpg'
p1078
sg89
Nsg90
g595
sg92
I0
sg52
I1131
sg93
g1
sg47
I1152
sg94
F300
sg95
F29.970029970029969
sg96
I1
sg97
S''
sg98
(F29.970029970029969
I0
tp1079
sg100
S''
sg50
S'f2baa0c5-e6c4-11e6-8784-e8b1fc98bbfb'
p1080
sbsg401
I00
sg402
F100
sg403
(lp1081
sg405
F0
sg406
I00
sg85
S'/home/jeff/digital_media_class/dig_med/Proj1_intro_vid/thumbnail/f2baa0c4-e6c4-11e6-8784-e8b1fc98bbfb_jpg_1.png'
p1082
sg87
S'fldusmc.jpg'
p1083
sg409
S'centre'
p1084
sg244
I01
sg411
F2.0499999999999998
sg50
S'50a06268-e6c5-11e6-8784-e8b1fc98bbfb'
p1085
sba(iclasses.clip
clip
p1086
(dp1087
g362
g363
sg364
I00
sg365
I00
sg366
(dp1088
g368
(iclasses.keyframe
keyframe
p1089
(dp1090
g47
F100
sg48
F1
sS'y'
F0
sS'x'
F0
sg49
I0
sg50
S'070e32c7-e6c8-11e6-8784-e8b1fc98bbfb'
p1091
sg52
F100
sbsg372
(iclasses.keyframe
keyframe
p1092
(dp1093
g47
F100
sg48
F1
sS'y'
F0
sS'x'
F0
sg49
I-1
sg50
S'070e32c8-e6c8-11e6-8784-e8b1fc98bbfb'
p1094
sg52
F100
sbssg376
F2
sg377
I00
sg378
F1
sg379
I01
sg380
F2
sg381
F97.797099143206864
sg382
F39.5
sg383
F892.79008567931305
sg242
I01
sg384
F2
sg385
F300
sg386
S'centre'
p1095
sg388
I00
sg389
I00
sg348
I00
sg390
F2
sg89
g249
sg391
I01
sg392
I00
sg393
F0
sg394
(iclasses.files
OpenShotFile
p1096
(dp1097
g81
F14999
sg82
S''
sg84
I0
sg85
S'/home/jeff/digital_media_class/dig_med/Proj1_intro_vid/thumbnail/10fd8c9e-e6c0-11e6-8784-e8b1fc98bbfb_png_1.png'
p1098
sg87
S'/home/jeff/digital_media_class/dig_med/Proj1_intro_vid/art/dogs.png'
p1099
sg89
Nsg90
g266
sg92
I0
sg52
I400
sg93
g1
sg47
I640
sg94
F300
sg95
F29.970029970029969
sg96
I1
sg97
S''
sg98
(F29.970029970029969
I0
tp1100
sg100
S''
sg50
S'10fd8c9f-e6c0-11e6-8784-e8b1fc98bbfb'
p1101
sbsg401
I00
sg402
F100
sg403
(lp1102
sg405
F0
sg406
I00
sg85
S'/home/jeff/digital_media_class/dig_med/Proj1_intro_vid/thumbnail/10fd8c9e-e6c0-11e6-8784-e8b1fc98bbfb_png_1.png'
p1103
sg87
S'dogs.png'
p1104
sg409
S'centre'
p1105
sg244
I01
sg411
F2
sg50
S'070e32c6-e6c8-11e6-8784-e8b1fc98bbfb'
p1106
sba(iclasses.clip
clip
p1107
(dp1108
g362
g363
sg364
I00
sg365
I00
sg366
(dp1109
g368
(iclasses.keyframe
keyframe
p1110
(dp1111
g47
F100
sg48
F1
sS'y'
F0
sS'x'
F0
sg49
I0
sg50
S'53da0bf3-e6c8-11e6-8784-e8b1fc98bbfb'
p1112
sg52
F100
sbsg372
(iclasses.keyframe
keyframe
p1113
(dp1114
g47
F100
sg48
F1
sS'y'
F0
sS'x'
F0
sg49
I-1
sg50
S'53da0bf4-e6c8-11e6-8784-e8b1fc98bbfb'
p1115
sg52
F100
sbssg376
F2
sg377
I00
sg378
F1
sg379
I01
sg380
F2
sg381
F99.797099143206864
sg382
F37.5
sg383
F547.79008567931305
sg242
I01
sg384
F2
sg385
F300
sg386
S'centre'
p1116
sg388
I00
sg389
I00
sg348
I00
sg390
F2
sg89
g249
sg391
I01
sg392
I00
sg393
F0
sg394
(iclasses.files
OpenShotFile
p1117
(dp1118
g81
F14999
sg82
S''
sg84
I0
sg85
S'/home/jeff/digital_media_class/dig_med/Proj1_intro_vid/thumbnail/4f99d676-e6c8-11e6-8784-e8b1fc98bbfb_jpg_1.png'
p1119
sg87
S'/home/jeff/digital_media_class/dig_med/Proj1_intro_vid/pics/dogs/pokey.jpg'
p1120
sg89
Nsg90
g595
sg92
I0
sg52
I3096
sg93
g1
sg47
I4128
sg94
F300
sg95
F29.970029970029969
sg96
I1
sg97
S''
sg98
(F29.970029970029969
I0
tp1121
sg100
S''
sg50
S'4f99d677-e6c8-11e6-8784-e8b1fc98bbfb'
p1122
sbsg401
I00
sg402
F100
sg403
(lp1123
sg405
F0
sg406
I00
sg85
S'/home/jeff/digital_media_class/dig_med/Proj1_intro_vid/thumbnail/4f99d676-e6c8-11e6-8784-e8b1fc98bbfb_jpg_1.png'
p1124
sg87
S'pokey.jpg'
p1125
sg409
S'centre'
p1126
sg244
I01
sg411
F2
sg50
S'53da0bf2-e6c8-11e6-8784-e8b1fc98bbfb'
p1127
sba(iclasses.clip
clip
p1128
(dp1129
g362
g363
sg364
I00
sg365
I00
sg366
(dp1130
g368
(iclasses.keyframe
keyframe
p1131
(dp1132
g47
F100
sg48
F1
sS'y'
F0
sS'x'
F0
sg49
I0
sg50
S'5ce15b93-e6c8-11e6-8784-e8b1fc98bbfb'
p1133
sg52
F100
sbsg372
(iclasses.keyframe
keyframe
p1134
(dp1135
g47
F100
sg48
F1
sS'y'
F0
sS'x'
F0
sg49
I-1
sg50
S'5ce15b94-e6c8-11e6-8784-e8b1fc98bbfb'
p1136
sg52
F100
sbssg376
F2
sg377
I00
sg378
F1
sg379
I01
sg380
F2
sg381
F101.79709914320686
sg382
F37.5
sg383
F380.79008567931305
sg242
I01
sg384
F2
sg385
F300
sg386
S'centre'
p1137
sg388
I00
sg389
I00
sg348
I00
sg390
F2
sg89
g249
sg391
I01
sg392
I00
sg393
F0
sg394
(iclasses.files
OpenShotFile
p1138
(dp1139
g81
F14999
sg82
S''
sg84
I0
sg85
S'/home/jeff/digital_media_class/dig_med/Proj1_intro_vid/thumbnail/4f99d678-e6c8-11e6-8784-e8b1fc98bbfb_jpg_1.png'
p1140
sg87
S'/home/jeff/digital_media_class/dig_med/Proj1_intro_vid/pics/dogs/quesey.jpg'
p1141
sg89
Nsg90
g595
sg92
I0
sg52
I1200
sg93
g1
sg47
I1600
sg94
F300
sg95
F29.970029970029969
sg96
I1
sg97
S''
sg98
(F29.970029970029969
I0
tp1142
sg100
S''
sg50
S'4f99d679-e6c8-11e6-8784-e8b1fc98bbfb'
p1143
sbsg401
I00
sg402
F100
sg403
(lp1144
sg405
F0
sg406
I00
sg85
S'/home/jeff/digital_media_class/dig_med/Proj1_intro_vid/thumbnail/4f99d678-e6c8-11e6-8784-e8b1fc98bbfb_jpg_1.png'
p1145
sg87
S'quesey.jpg'
p1146
sg409
S'centre'
p1147
sg244
I01
sg411
F2
sg50
S'5ce15b92-e6c8-11e6-8784-e8b1fc98bbfb'
p1148
sba(iclasses.clip
clip
p1149
(dp1150
g362
g363
sg364
I00
sg365
I00
sg366
(dp1151
g368
(iclasses.keyframe
keyframe
p1152
(dp1153
g47
F100
sg48
F1
sS'y'
F0
sS'x'
F0
sg49
I0
sg50
S'19b16f3d-e6c9-11e6-8784-e8b1fc98bbfb'
p1154
sg52
F100
sbsg372
(iclasses.keyframe
keyframe
p1155
(dp1156
g47
F100
sg48
F1
sS'y'
F0
sS'x'
F0
sg49
I-1
sg50
S'19b16f3e-e6c9-11e6-8784-e8b1fc98bbfb'
p1157
sg52
F100
sbssg376
F2
sg377
I00
sg378
F1
sg379
I01
sg380
F2
sg381
F103.79709914320686
sg382
F48.5
sg383
F281.79008567931305
sg242
I01
sg384
F2
sg385
F300
sg386
S'centre'
p1158
sg388
I00
sg389
I00
sg348
I00
sg390
F2
sg89
g249
sg391
I01
sg392
I00
sg393
F0
sg394
(iclasses.files
OpenShotFile
p1159
(dp1160
g81
F14999
sg82
S''
sg84
I0
sg85
S'/home/jeff/digital_media_class/dig_med/Proj1_intro_vid/thumbnail/fce3751c-e6c8-11e6-8784-e8b1fc98bbfb_png_1.png'
p1161
sg87
S'/home/jeff/digital_media_class/dig_med/Proj1_intro_vid/art/softball.png'
p1162
sg89
Nsg90
g595
sg92
I0
sg52
I400
sg93
g1
sg47
I640
sg94
F300
sg95
F29.970029970029969
sg96
I1
sg97
S''
sg98
(F29.970029970029969
I0
tp1163
sg100
S''
sg50
S'fce3751d-e6c8-11e6-8784-e8b1fc98bbfb'
p1164
sbsg401
I00
sg402
F100
sg403
(lp1165
sg405
F0
sg406
I00
sg85
S'/home/jeff/digital_media_class/dig_med/Proj1_intro_vid/thumbnail/fce3751c-e6c8-11e6-8784-e8b1fc98bbfb_png_1.png'
p1166
sg87
S'softball.png'
p1167
sg409
S'centre'
p1168
sg244
I01
sg411
F2
sg50
S'19b16f3c-e6c9-11e6-8784-e8b1fc98bbfb'
p1169
sba(iclasses.clip
clip
p1170
(dp1171
g362
g363
sg364
I00
sg365
I00
sg366
(dp1172
g368
(iclasses.keyframe
keyframe
p1173
(dp1174
g47
F100
sg48
F1
sS'y'
F0
sS'x'
F0
sg49
I0
sg50
S'2b9750b9-e6c9-11e6-8784-e8b1fc98bbfb'
p1175
sg52
F100
sbsg372
(iclasses.keyframe
keyframe
p1176
(dp1177
g47
F100
sg48
F1
sS'y'
F0
sS'x'
F0
sg49
I-1
sg50
S'2b9750ba-e6c9-11e6-8784-e8b1fc98bbfb'
p1178
sg52
F100
sbssg376
F2
sg377
I00
sg378
F1
sg379
I01
sg380
F2
sg381
F105.79709914320686
sg382
F45.5
sg383
F350.79008567931305
sg242
I01
sg384
F2
sg385
F300
sg386
S'centre'
p1179
sg388
I00
sg389
I00
sg348
I00
sg390
F2
sg89
g249
sg391
I01
sg392
I00
sg393
F0
sg394
(iclasses.files
OpenShotFile
p1180
(dp1181
g81
F14999
sg82
S''
sg84
I0
sg85
S'/home/jeff/digital_media_class/dig_med/Proj1_intro_vid/thumbnail/0f52f880-e6c9-11e6-8784-e8b1fc98bbfb_JPG_1.png'
p1182
sg87
S'/home/jeff/digital_media_class/dig_med/Proj1_intro_vid/pics/passions/IMG_5186.JPG'
p1183
sg89
Nsg90
g595
sg92
I0
sg52
I576
sg93
g1
sg47
I720
sg94
F300
sg95
F29.970029970029969
sg96
I1
sg97
S''
sg98
(F29.970029970029969
I0
tp1184
sg100
S''
sg50
S'0f52f881-e6c9-11e6-8784-e8b1fc98bbfb'
p1185
sbsg401
I00
sg402
F100
sg403
(lp1186
sg405
F0
sg406
I00
sg85
S'/home/jeff/digital_media_class/dig_med/Proj1_intro_vid/thumbnail/0f52f880-e6c9-11e6-8784-e8b1fc98bbfb_JPG_1.png'
p1187
sg87
S'IMG_5186.JPG'
p1188
sg409
S'centre'
p1189
sg244
I01
sg411
F2
sg50
S'2b9750b8-e6c9-11e6-8784-e8b1fc98bbfb'
p1190
sba(iclasses.clip
clip
p1191
(dp1192
g362
g363
sg364
I00
sg365
I00
sg366
(dp1193
g368
(iclasses.keyframe
keyframe
p1194
(dp1195
g47
F100
sg48
F1
sS'y'
F0
sS'x'
F0
sg49
I0
sg50
S'39cd527d-e6c9-11e6-8784-e8b1fc98bbfb'
p1196
sg52
F100
sbsg372
(iclasses.keyframe
keyframe
p1197
(dp1198
g47
F100
sg48
F1
sS'y'
F0
sS'x'
F0
sg49
I-1
sg50
S'39cd527e-e6c9-11e6-8784-e8b1fc98bbfb'
p1199
sg52
F100
sbssg376
F2
sg377
I00
sg378
F1
sg379
I01
sg380
F2
sg381
F107.79709914320686
sg382
F50.5
sg383
F572.79008567931305
sg242
I01
sg384
F2
sg385
F300
sg386
S'centre'
p1200
sg388
I00
sg389
I00
sg348
I00
sg390
F2
sg89
g249
sg391
I01
sg392
I00
sg393
F0
sg394
(iclasses.files
OpenShotFile
p1201
(dp1202
g81
F14999
sg82
S''
sg84
I0
sg85
S'/home/jeff/digital_media_class/dig_med/Proj1_intro_vid/thumbnail/0f52f884-e6c9-11e6-8784-e8b1fc98bbfb_jpg_1.png'
p1203
sg87
S'/home/jeff/digital_media_class/dig_med/Proj1_intro_vid/pics/passions/MGR_9364.jpg'
p1204
sg89
Nsg90
g595
sg92
I0
sg52
I4288
sg93
g1
sg47
I2848
sg94
F300
sg95
F29.970029970029969
sg96
I1
sg97
S''
sg98
(F29.970029970029969
I0
tp1205
sg100
S''
sg50
S'0f52f885-e6c9-11e6-8784-e8b1fc98bbfb'
p1206
sbsg401
I00
sg402
F100
sg403
(lp1207
sg405
F0
sg406
I00
sg85
S'/home/jeff/digital_media_class/dig_med/Proj1_intro_vid/thumbnail/0f52f884-e6c9-11e6-8784-e8b1fc98bbfb_jpg_1.png'
p1208
sg87
S'MGR_9364.jpg'
p1209
sg409
S'centre'
p1210
sg244
I01
sg411
F2
sg50
S'39cd527c-e6c9-11e6-8784-e8b1fc98bbfb'
p1211
sba(iclasses.clip
clip
p1212
(dp1213
g362
g363
sg364
I00
sg365
I00
sg366
(dp1214
g368
(iclasses.keyframe
keyframe
p1215
(dp1216
g47
F100
sg48
F1
sS'y'
F0
sS'x'
F0
sg49
I0
sg50
S'4c05ad73-e6c9-11e6-8784-e8b1fc98bbfb'
p1217
sg52
F100
sbsg372
(iclasses.keyframe
keyframe
p1218
(dp1219
g47
F100
sg48
F1
sS'y'
F0
sS'x'
F0
sg49
I-1
sg50
S'4c05ad74-e6c9-11e6-8784-e8b1fc98bbfb'
p1220
sg52
F100
sbssg376
F2
sg377
I00
sg378
F1
sg379
I01
sg380
F2
sg381
F109.79709914320686
sg382
F54.5
sg383
F459.79008567931305
sg242
I01
sg384
F2
sg385
F300
sg386
S'centre'
p1221
sg388
I00
sg389
I00
sg348
I00
sg390
F2
sg89
g249
sg391
I01
sg392
I00
sg393
F0
sg394
(iclasses.files
OpenShotFile
p1222
(dp1223
g81
F14999
sg82
S''
sg84
I0
sg85
S'/home/jeff/digital_media_class/dig_med/Proj1_intro_vid/thumbnail/0f52f888-e6c9-11e6-8784-e8b1fc98bbfb_jpg_1.png'
p1224
sg87
S'/home/jeff/digital_media_class/dig_med/Proj1_intro_vid/pics/passions/MGR_9582.jpg'
p1225
sg89
Nsg90
g595
sg92
I0
sg52
I2848
sg93
g1
sg47
I4288
sg94
F300
sg95
F29.970029970029969
sg96
I1
sg97
S''
sg98
(F29.970029970029969
I0
tp1226
sg100
S''
sg50
S'108cedb4-e6c9-11e6-8784-e8b1fc98bbfb'
p1227
sbsg401
I00
sg402
F100
sg403
(lp1228
sg405
F0
sg406
I00
sg85
S'/home/jeff/digital_media_class/dig_med/Proj1_intro_vid/thumbnail/0f52f888-e6c9-11e6-8784-e8b1fc98bbfb_jpg_1.png'
p1229
sg87
S'MGR_9582.jpg'
p1230
sg409
S'centre'
p1231
sg244
I01
sg411
F2
sg50
S'4c05ad72-e6c9-11e6-8784-e8b1fc98bbfb'
p1232
sba(iclasses.clip
clip
p1233
(dp1234
g362
g363
sg364
I00
sg365
I00
sg366
(dp1235
g368
(iclasses.keyframe
keyframe
p1236
(dp1237
g47
F100
sg48
F1
sS'y'
F0
sS'x'
F0
sg49
I0
sg50
S'5af7f0c5-e6c9-11e6-8784-e8b1fc98bbfb'
p1238
sg52
F100
sbsg372
(iclasses.keyframe
keyframe
p1239
(dp1240
g47
F100
sg48
F1
sS'y'
F0
sS'x'
F0
sg49
I-1
sg50
S'5af7f0c6-e6c9-11e6-8784-e8b1fc98bbfb'
p1241
sg52
F100
sbssg376
F2
sg377
I00
sg378
F1
sg379
I01
sg380
F2
sg381
F111.79709914320686
sg382
F55.5
sg383
F657.79008567931305
sg242
I01
sg384
F2
sg385
F300
sg386
S'centre'
p1242
sg388
I00
sg389
I00
sg348
I00
sg390
F2
sg89
g249
sg391
I01
sg392
I00
sg393
F0
sg394
(iclasses.files
OpenShotFile
p1243
(dp1244
g81
F14999
sg82
S''
sg84
I0
sg85
S'/home/jeff/digital_media_class/dig_med/Proj1_intro_vid/thumbnail/108cedb5-e6c9-11e6-8784-e8b1fc98bbfb_JPG_1.png'
p1245
sg87
S'/home/jeff/digital_media_class/dig_med/Proj1_intro_vid/pics/passions/SANY0272 (2).JPG'
p1246
sg89
Nsg90
g595
sg92
I0
sg52
I3216
sg93
g1
sg47
I4288
sg94
F300
sg95
F29.970029970029969
sg96
I1
sg97
S''
sg98
(F29.970029970029969
I0
tp1247
sg100
S''
sg50
S'108cedb6-e6c9-11e6-8784-e8b1fc98bbfb'
p1248
sbsg401
I00
sg402
F100
sg403
(lp1249
sg405
F0
sg406
I00
sg85
S'/home/jeff/digital_media_class/dig_med/Proj1_intro_vid/thumbnail/108cedb5-e6c9-11e6-8784-e8b1fc98bbfb_JPG_1.png'
p1250
sg87
S'SANY0272 (2).JPG'
p1251
sg409
S'centre'
p1252
sg244
I01
sg411
F2
sg50
S'5af7f0c4-e6c9-11e6-8784-e8b1fc98bbfb'
p1253
sba(iclasses.clip
clip
p1254
(dp1255
g362
g363
sg364
I00
sg365
I00
sg366
(dp1256
g368
(iclasses.keyframe
keyframe
p1257
(dp1258
g47
F100
sg48
F1
sS'y'
F0
sS'x'
F0
sg49
I0
sg50
S'6592286b-e6c9-11e6-8784-e8b1fc98bbfb'
p1259
sg52
F100
sbsg372
(iclasses.keyframe
keyframe
p1260
(dp1261
g47
F100
sg48
F1
sS'y'
F0
sS'x'
F0
sg49
I-1
sg50
S'6592286c-e6c9-11e6-8784-e8b1fc98bbfb'
p1262
sg52
F100
sbssg376
F2
sg377
I00
sg378
F1
sg379
I01
sg380
F2
sg381
F113.79709914320686
sg382
F47.5
sg383
F606.79008567931305
sg242
I01
sg384
F2
sg385
F300
sg386
S'centre'
p1263
sg388
I00
sg389
I00
sg348
I00
sg390
F2
sg89
g249
sg391
I01
sg392
I00
sg393
F0
sg394
(iclasses.files
OpenShotFile
p1264
(dp1265
g81
F14999
sg82
S''
sg84
I0
sg85
S'/home/jeff/digital_media_class/dig_med/Proj1_intro_vid/thumbnail/0f52f882-e6c9-11e6-8784-e8b1fc98bbfb_JPG_1.png'
p1266
sg87
S'/home/jeff/digital_media_class/dig_med/Proj1_intro_vid/pics/passions/meandbbgirl.JPG'
p1267
sg89
Nsg90
g595
sg92
I0
sg52
I537
sg93
g1
sg47
I720
sg94
F300
sg95
F29.970029970029969
sg96
I1
sg97
S''
sg98
(F29.970029970029969
I0
tp1268
sg100
S''
sg50
S'0f52f883-e6c9-11e6-8784-e8b1fc98bbfb'
p1269
sbsg401
I00
sg402
F100
sg403
(lp1270
sg405
F0
sg406
I00
sg85
S'/home/jeff/digital_media_class/dig_med/Proj1_intro_vid/thumbnail/0f52f882-e6c9-11e6-8784-e8b1fc98bbfb_JPG_1.png'
p1271
sg87
S'meandbbgirl.JPG'
p1272
sg409
S'centre'
p1273
sg244
I01
sg411
F2
sg50
S'6592286a-e6c9-11e6-8784-e8b1fc98bbfb'
p1274
sba(iclasses.clip
clip
p1275
(dp1276
g362
g363
sg364
I00
sg365
I00
sg366
(dp1277
g368
(iclasses.keyframe
keyframe
p1278
(dp1279
g47
F100
sg48
F1
sS'y'
F0
sS'x'
F0
sg49
I0
sg50
S'782c6d6f-e6c9-11e6-8784-e8b1fc98bbfb'
p1280
sg52
F100
sbsg372
(iclasses.keyframe
keyframe
p1281
(dp1282
g47
F100
sg48
F1
sS'y'
F0
sS'x'
F0
sg49
I-1
sg50
S'782c6d70-e6c9-11e6-8784-e8b1fc98bbfb'
p1283
sg52
F100
sbssg376
F2
sg377
I00
sg378
F1
sg379
I01
sg380
F2
sg381
F115.79709914320686
sg382
F43.5
sg383
F923.79008567931305
sg242
I01
sg384
F2
sg385
F300
sg386
S'centre'
p1284
sg388
I00
sg389
I00
sg348
I00
sg390
F2
sg89
g249
sg391
I01
sg392
I00
sg393
F0
sg394
(iclasses.files
OpenShotFile
p1285
(dp1286
g81
F14999
sg82
S''
sg84
I0
sg85
S'/home/jeff/digital_media_class/dig_med/Proj1_intro_vid/thumbnail/0f52f87e-e6c9-11e6-8784-e8b1fc98bbfb_jpg_1.png'
p1287
sg87
S'/home/jeff/digital_media_class/dig_med/Proj1_intro_vid/pics/passions/130708779441466141.jpg'
p1288
sg89
Nsg90
g595
sg92
I0
sg52
I854
sg93
g1
sg47
I960
sg94
F300
sg95
F29.970029970029969
sg96
I1
sg97
S''
sg98
(F29.970029970029969
I0
tp1289
sg100
S''
sg50
S'0f52f87f-e6c9-11e6-8784-e8b1fc98bbfb'
p1290
sbsg401
I00
sg402
F100
sg403
(lp1291
sg405
F0
sg406
I00
sg85
S'/home/jeff/digital_media_class/dig_med/Proj1_intro_vid/thumbnail/0f52f87e-e6c9-11e6-8784-e8b1fc98bbfb_jpg_1.png'
p1292
sg87
S'130708779441466141.jpg'
p1293
sg409
S'centre'
p1294
sg244
I01
sg411
F1.5
sg50
S'782c6d6e-e6c9-11e6-8784-e8b1fc98bbfb'
p1295
sba(iclasses.clip
clip
p1296
(dp1297
g362
g363
sg364
I00
sg365
I00
sg366
(dp1298
g368
(iclasses.keyframe
keyframe
p1299
(dp1300
g47
F100
sg48
F1
sS'y'
F0
sS'x'
F0
sg49
I0
sg50
S'8dfe2b79-e6c9-11e6-8784-e8b1fc98bbfb'
p1301
sg52
F100
sbsg372
(iclasses.keyframe
keyframe
p1302
(dp1303
g47
F100
sg48
F1
sS'y'
F0
sS'x'
F0
sg49
I-1
sg50
S'8dfe2b7a-e6c9-11e6-8784-e8b1fc98bbfb'
p1304
sg52
F100
sbssg376
F2
sg377
I00
sg378
F1
sg379
I01
sg380
F2
sg381
F117.29709914320686
sg382
F48.5
sg383
F803.79008567931305
sg242
I01
sg384
F2
sg385
F300
sg386
S'centre'
p1305
sg388
I00
sg389
I00
sg348
I00
sg390
F2
sg89
g249
sg391
I01
sg392
I00
sg393
F0
sg394
(iclasses.files
OpenShotFile
p1306
(dp1307
g81
F14999
sg82
S''
sg84
I0
sg85
S'/home/jeff/digital_media_class/dig_med/Proj1_intro_vid/thumbnail/0f52f878-e6c9-11e6-8784-e8b1fc98bbfb_jpg_1.png'
p1308
sg87
S'/home/jeff/digital_media_class/dig_med/Proj1_intro_vid/pics/passions/130708778108293986.jpg'
p1309
sg89
Nsg90
g595
sg92
I0
sg52
I854
sg93
g1
sg47
I960
sg94
F300
sg95
F29.970029970029969
sg96
I1
sg97
S''
sg98
(F29.970029970029969
I0
tp1310
sg100
S''
sg50
S'0f52f879-e6c9-11e6-8784-e8b1fc98bbfb'
p1311
sbsg401
I00
sg402
F100
sg403
(lp1312
sg405
F0
sg406
I00
sg85
S'/home/jeff/digital_media_class/dig_med/Proj1_intro_vid/thumbnail/0f52f878-e6c9-11e6-8784-e8b1fc98bbfb_jpg_1.png'
p1313
sg87
S'130708778108293986.jpg'
p1314
sg409
S'centre'
p1315
sg244
I01
sg411
F1.25
sg50
S'8dfe2b78-e6c9-11e6-8784-e8b1fc98bbfb'
p1316
sba(iclasses.clip
clip
p1317
(dp1318
g362
g363
sg364
I00
sg365
I00
sg366
(dp1319
g368
(iclasses.keyframe
keyframe
p1320
(dp1321
g47
F100
sg48
F1
sS'y'
F0
sS'x'
F0
sg49
I0
sg50
S'9a4cb71f-e6c9-11e6-8784-e8b1fc98bbfb'
p1322
sg52
F100
sbsg372
(iclasses.keyframe
keyframe
p1323
(dp1324
g47
F100
sg48
F1
sS'y'
F0
sS'x'
F0
sg49
I-1
sg50
S'9a4cb720-e6c9-11e6-8784-e8b1fc98bbfb'
p1325
sg52
F100
sbssg376
F2
sg377
I00
sg378
F1
sg379
I01
sg380
F2
sg381
F118.54709914320686
sg382
F40.5
sg383
F964.79008567931305
sg242
I01
sg384
F2
sg385
F300
sg386
S'centre'
p1326
sg388
I00
sg389
I00
sg348
I00
sg390
F2
sg89
g249
sg391
I01
sg392
I00
sg393
F0
sg394
(iclasses.files
OpenShotFile
p1327
(dp1328
g81
F14999
sg82
S''
sg84
I0
sg85
S'/home/jeff/digital_media_class/dig_med/Proj1_intro_vid/thumbnail/0f52f87a-e6c9-11e6-8784-e8b1fc98bbfb_jpg_1.png'
p1329
sg87
S'/home/jeff/digital_media_class/dig_med/Proj1_intro_vid/pics/passions/130708779077494834.jpg'
p1330
sg89
Nsg90
g595
sg92
I0
sg52
I854
sg93
g1
sg47
I960
sg94
F300
sg95
F29.970029970029969
sg96
I1
sg97
S''
sg98
(F29.970029970029969
I0
tp1331
sg100
S''
sg50
S'0f52f87b-e6c9-11e6-8784-e8b1fc98bbfb'
p1332
sbsg401
I00
sg402
F100
sg403
(lp1333
sg405
F0
sg406
I00
sg85
S'/home/jeff/digital_media_class/dig_med/Proj1_intro_vid/thumbnail/0f52f87a-e6c9-11e6-8784-e8b1fc98bbfb_jpg_1.png'
p1334
sg87
S'130708779077494834.jpg'
p1335
sg409
S'centre'
p1336
sg244
I01
sg411
F1.25
sg50
S'9a4cb71e-e6c9-11e6-8784-e8b1fc98bbfb'
p1337
sba(iclasses.clip
clip
p1338
(dp1339
g362
g363
sg364
I00
sg365
I00
sg366
(dp1340
g368
(iclasses.keyframe
keyframe
p1341
(dp1342
g47
F100
sg48
F1
sS'y'
F0
sS'x'
F0
sg49
I0
sg50
S'a9adcc99-e6c9-11e6-8784-e8b1fc98bbfb'
p1343
sg52
F100
sbsg372
(iclasses.keyframe
keyframe
p1344
(dp1345
g47
F100
sg48
F1
sS'y'
F0
sS'x'
F0
sg49
I-1
sg50
S'a9adcc9a-e6c9-11e6-8784-e8b1fc98bbfb'
p1346
sg52
F100
sbssg376
F2
sg377
I00
sg378
F1
sg379
I01
sg380
F2
sg381
F119.79709914320686
sg382
F108.5
sg383
F12078.5
sg242
I01
sg384
F2
sg385
F300
sg346
I00
sg386
S'centre'
p1347
sg388
I00
sg389
I00
sg348
I00
sg390
F2
sg89
g249
sg391
I01
sg392
I00
sg393
F0
sg394
(iclasses.files
OpenShotFile
p1348
(dp1349
g81
F14999
sg82
S''
sg84
I0
sg85
S'/home/jeff/digital_media_class/dig_med/Proj1_intro_vid/thumbnail/0f52f87c-e6c9-11e6-8784-e8b1fc98bbfb_jpg_1.png'
p1350
sg87
S'/home/jeff/digital_media_class/dig_med/Proj1_intro_vid/pics/passions/130708779676246039.jpg'
p1351
sg89
Nsg90
g595
sg92
I0
sg52
I854
sg93
g1
sg47
I960
sg94
F300
sg95
F29.970029970029969
sg96
I1
sg97
S''
sg98
(F29.970029970029969
I0
tp1352
sg100
S''
sg50
S'0f52f87d-e6c9-11e6-8784-e8b1fc98bbfb'
p1353
sbsg401
I00
sg402
F100
sg403
(lp1354
sg405
F0
sg406
I00
sg85
S'/home/jeff/digital_media_class/dig_med/Proj1_intro_vid/thumbnail/0f52f87c-e6c9-11e6-8784-e8b1fc98bbfb_jpg_1.png'
p1355
sg87
S'130708779676246039.jpg'
p1356
sg409
S'centre'
p1357
sg244
I01
sg411
F1.1499999999999999
sg50
S'a9adcc98-e6c9-11e6-8784-e8b1fc98bbfb'
p1358
sba(iclasses.clip
clip
p1359
(dp1360
g362
g363
sg364
I00
sg365
I00
sg366
(dp1361
g368
(iclasses.keyframe
keyframe
p1362
(dp1363
g47
F100
sg48
F1
sS'y'
F0
sS'x'
F0
sg49
I0
sg50
S'c8255eb7-e6c9-11e6-8784-e8b1fc98bbfb'
p1364
sg52
F100
sbsg372
(iclasses.keyframe
keyframe
p1365
(dp1366
g47
F100
sg48
F1
sS'y'
F0
sS'x'
F0
sg49
I-1
sg50
S'c8255eb8-e6c9-11e6-8784-e8b1fc98bbfb'
p1367
sg52
F100
sbssg376
F2
sg377
I00
sg378
F1
sg379
I01
sg380
F2
sg381
F120.94709914320687
sg382
F35.5
sg383
F671.79008567931305
sg242
I01
sg384
F2
sg385
F300
sg386
S'centre'
p1368
sg388
I00
sg389
I00
sg348
I00
sg390
F2
sg89
g249
sg391
I01
sg392
I00
sg393
F0
sg394
(iclasses.files
OpenShotFile
p1369
(dp1370
g81
F14999
sg82
S''
sg84
I0
sg85
S'/home/jeff/digital_media_class/dig_med/Proj1_intro_vid/thumbnail/fce3751e-e6c8-11e6-8784-e8b1fc98bbfb_png_1.png'
p1371
sg87
S'/home/jeff/digital_media_class/dig_med/Proj1_intro_vid/art/fishing.png'
p1372
sg89
Nsg90
g595
sg92
I0
sg52
I400
sg93
g1
sg47
I640
sg94
F300
sg95
F29.970029970029969
sg96
I1
sg97
S''
sg98
(F29.970029970029969
I0
tp1373
sg100
S''
sg50
S'fce3751f-e6c8-11e6-8784-e8b1fc98bbfb'
p1374
sbsg401
I00
sg402
F100
sg403
(lp1375
sg405
F0
sg406
I00
sg85
S'/home/jeff/digital_media_class/dig_med/Proj1_intro_vid/thumbnail/fce3751e-e6c8-11e6-8784-e8b1fc98bbfb_png_1.png'
p1376
sg87
S'fishing.png'
p1377
sg409
S'centre'
p1378
sg244
I01
sg411
F2
sg50
S'c8255eb6-e6c9-11e6-8784-e8b1fc98bbfb'
p1379
sba(iclasses.clip
clip
p1380
(dp1381
g362
g363
sg364
I00
sg365
I00
sg366
(dp1382
g368
(iclasses.keyframe
keyframe
p1383
(dp1384
g47
F100
sg48
F1
sS'y'
F0
sS'x'
F0
sg49
I0
sg50
S'faf21bc3-e6c9-11e6-8784-e8b1fc98bbfb'
p1385
sg52
F100
sbsg372
(iclasses.keyframe
keyframe
p1386
(dp1387
g47
F100
sg48
F1
sS'y'
F0
sS'x'
F0
sg49
I-1
sg50
S'faf21bc4-e6c9-11e6-8784-e8b1fc98bbfb'
p1388
sg52
F100
sbssg376
F2
sg377
I00
sg378
F1
sg379
I01
sg380
F2
sg381
F122.94709914320687
sg382
F46.5
sg383
F637.79008567931305
sg242
I01
sg384
F2
sg385
F300
sg386
S'centre'
p1389
sg388
I00
sg389
I00
sg348
I00
sg390
F2
sg89
g249
sg391
I01
sg392
I00
sg393
F0
sg394
(iclasses.files
OpenShotFile
p1390
(dp1391
g81
F14999
sg82
S''
sg84
I0
sg85
S'/home/jeff/digital_media_class/dig_med/Proj1_intro_vid/thumbnail/0f52f862-e6c9-11e6-8784-e8b1fc98bbfb_jpg_1.png'
p1392
sg87
S'/home/jeff/digital_media_class/dig_med/Proj1_intro_vid/pics/passions/FB_IMG_1471198155503.jpg'
p1393
sg89
Nsg90
g595
sg92
I0
sg52
I720
sg93
g1
sg47
I719
sg94
F300
sg95
F29.970029970029969
sg96
I1
sg97
S''
sg98
(F29.970029970029969
I0
tp1394
sg100
S''
sg50
S'0f52f863-e6c9-11e6-8784-e8b1fc98bbfb'
p1395
sbsg401
I00
sg402
F100
sg403
(lp1396
sg405
F0
sg406
I00
sg85
S'/home/jeff/digital_media_class/dig_med/Proj1_intro_vid/thumbnail/0f52f862-e6c9-11e6-8784-e8b1fc98bbfb_jpg_1.png'
p1397
sg87
S'FB_IMG_1471198155503.jpg'
p1398
sg409
S'centre'
p1399
sg244
I01
sg411
F2
sg50
S'faf21bc2-e6c9-11e6-8784-e8b1fc98bbfb'
p1400
sba(iclasses.clip
clip
p1401
(dp1402
g362
g363
sg364
I00
sg365
I00
sg366
(dp1403
g368
(iclasses.keyframe
keyframe
p1404
(dp1405
g47
F100
sg48
F1
sS'y'
F0
sS'x'
F0
sg49
I0
sg50
S'10a637bf-e6ca-11e6-8784-e8b1fc98bbfb'
p1406
sg52
F100
sbsg372
(iclasses.keyframe
keyframe
p1407
(dp1408
g47
F100
sg48
F1
sS'y'
F0
sS'x'
F0
sg49
I-1
sg50
S'10a637c0-e6ca-11e6-8784-e8b1fc98bbfb'
p1409
sg52
F100
sbssg376
F2
sg377
I00
sg378
F1
sg379
I01
sg380
F2
sg381
F124.94709914320686
sg382
F37.5
sg383
F419.79008567931305
sg242
I01
sg384
F2
sg385
F300
sg386
S'centre'
p1410
sg388
I00
sg389
I00
sg348
I00
sg390
F2
sg89
g249
sg391
I01
sg392
I00
sg393
F0
sg394
(iclasses.files
OpenShotFile
p1411
(dp1412
g81
F14999
sg82
S''
sg84
I0
sg85
S'/home/jeff/digital_media_class/dig_med/Proj1_intro_vid/thumbnail/0d9a4312-e6ca-11e6-8784-e8b1fc98bbfb_jpg_1.png'
p1413
sg87
S'/home/jeff/digital_media_class/dig_med/Proj1_intro_vid/pics/dogs/pokwater.jpg'
p1414
sg89
Nsg90
g595
sg92
I0
sg52
I3180
sg93
g1
sg47
I2294
sg94
F300
sg95
F29.970029970029969
sg96
I1
sg97
S''
sg98
(F29.970029970029969
I0
tp1415
sg100
S''
sg50
S'0d9a4313-e6ca-11e6-8784-e8b1fc98bbfb'
p1416
sbsg401
I00
sg402
F100
sg403
(lp1417
sg405
F0
sg406
I00
sg85
S'/home/jeff/digital_media_class/dig_med/Proj1_intro_vid/thumbnail/0d9a4312-e6ca-11e6-8784-e8b1fc98bbfb_jpg_1.png'
p1418
sg87
S'pokwater.jpg'
p1419
sg409
S'centre'
p1420
sg244
I01
sg411
F2
sg50
S'10a637be-e6ca-11e6-8784-e8b1fc98bbfb'
p1421
sba(iclasses.clip
clip
p1422
(dp1423
g362
g363
sg364
I00
sg365
I00
sg366
(dp1424
g368
(iclasses.keyframe
keyframe
p1425
(dp1426
g47
F100
sg48
F1
sS'y'
F0
sS'x'
F0
sg49
I0
sg50
S'243abf67-e6ca-11e6-8784-e8b1fc98bbfb'
p1427
sg52
F100
sbsg372
(iclasses.keyframe
keyframe
p1428
(dp1429
g47
F100
sg48
F1
sS'y'
F0
sS'x'
F0
sg49
I-1
sg50
S'243abf68-e6ca-11e6-8784-e8b1fc98bbfb'
p1430
sg52
F100
sbssg376
F2
sg377
I00
sg378
F1
sg379
I01
sg380
F2
sg381
F126.94709914320686
sg382
F49.5
sg383
F431.79008567931305
sg242
I01
sg384
F2
sg385
F300
sg386
S'centre'
p1431
sg388
I00
sg389
I00
sg348
I00
sg390
F2
sg89
g249
sg391
I01
sg392
I00
sg393
F0
sg394
(iclasses.files
OpenShotFile
p1432
(dp1433
g81
F14999
sg82
S''
sg84
I0
sg85
S'/home/jeff/digital_media_class/dig_med/Proj1_intro_vid/thumbnail/0f52f864-e6c9-11e6-8784-e8b1fc98bbfb_jpg_1.png'
p1434
sg87
S'/home/jeff/digital_media_class/dig_med/Proj1_intro_vid/pics/passions/FB_IMG_1471198149434.jpg'
p1435
sg89
Nsg90
g595
sg92
I0
sg52
I720
sg93
g1
sg47
I960
sg94
F300
sg95
F29.970029970029969
sg96
I1
sg97
S''
sg98
(F29.970029970029969
I0
tp1436
sg100
S''
sg50
S'0f52f865-e6c9-11e6-8784-e8b1fc98bbfb'
p1437
sbsg401
I00
sg402
F100
sg403
(lp1438
sg405
F0
sg406
I00
sg85
S'/home/jeff/digital_media_class/dig_med/Proj1_intro_vid/thumbnail/0f52f864-e6c9-11e6-8784-e8b1fc98bbfb_jpg_1.png'
p1439
sg87
S'FB_IMG_1471198149434.jpg'
p1440
sg409
S'centre'
p1441
sg244
I01
sg411
F2
sg50
S'243abf66-e6ca-11e6-8784-e8b1fc98bbfb'
p1442
sba(iclasses.clip
clip
p1443
(dp1444
g362
g363
sg364
I00
sg365
I00
sg366
(dp1445
g368
(iclasses.keyframe
keyframe
p1446
(dp1447
g47
F100
sg48
F1
sS'y'
F0
sS'x'
F0
sg49
I0
sg50
S'2cf92873-e6ca-11e6-8784-e8b1fc98bbfb'
p1448
sg52
F100
sbsg372
(iclasses.keyframe
keyframe
p1449
(dp1450
g47
F100
sg48
F1
sS'y'
F0
sS'x'
F0
sg49
I-1
sg50
S'2cf92874-e6ca-11e6-8784-e8b1fc98bbfb'
p1451
sg52
F100
sbssg376
F2
sg377
I00
sg378
F1
sg379
I01
sg380
F2
sg381
F128.94709914320686
sg382
F58.5
sg383
F522.79008567931305
sg242
I01
sg384
F2
sg385
F300
sg346
I00
sg386
S'centre'
p1452
sg388
I00
sg389
I00
sg348
I00
sg390
F2
sg89
g249
sg391
I01
sg392
I00
sg393
F0
sg394
(iclasses.files
OpenShotFile
p1453
(dp1454
g81
F14999
sg82
S''
sg84
I0
sg85
S'/home/jeff/digital_media_class/dig_med/Proj1_intro_vid/thumbnail/0f52f866-e6c9-11e6-8784-e8b1fc98bbfb_jpg_1.png'
p1455
sg87
S'/home/jeff/digital_media_class/dig_med/Proj1_intro_vid/pics/passions/FB_IMG_1471198129003.jpg'
p1456
sg89
Nsg90
g595
sg92
I0
sg52
I720
sg93
g1
sg47
I960
sg94
F300
sg95
F29.970029970029969
sg96
I1
sg97
S''
sg98
(F29.970029970029969
I0
tp1457
sg100
S''
sg50
S'0f52f867-e6c9-11e6-8784-e8b1fc98bbfb'
p1458
sbsg401
I00
sg402
F100
sg403
(lp1459
sg405
F0
sg406
I00
sg85
S'/home/jeff/digital_media_class/dig_med/Proj1_intro_vid/thumbnail/0f52f866-e6c9-11e6-8784-e8b1fc98bbfb_jpg_1.png'
p1460
sg87
S'FB_IMG_1471198129003.jpg'
p1461
sg409
S'centre'
p1462
sg244
I01
sg411
F2
sg50
S'2cf92872-e6ca-11e6-8784-e8b1fc98bbfb'
p1463
sba(iclasses.clip
clip
p1464
(dp1465
g362
g363
sg364
I00
sg365
I00
sg366
(dp1466
g368
(iclasses.keyframe
keyframe
p1467
(dp1468
g47
F100
sg48
F1
sS'y'
F0
sS'x'
F0
sg49
I0
sg50
S'40d6572b-e6ca-11e6-8784-e8b1fc98bbfb'
p1469
sg52
F100
sbsg372
(iclasses.keyframe
keyframe
p1470
(dp1471
g47
F100
sg48
F1
sS'y'
F0
sS'x'
F0
sg49
I-1
sg50
S'40d6572c-e6ca-11e6-8784-e8b1fc98bbfb'
p1472
sg52
F100
sbssg376
F2
sg377
I00
sg378
F1
sg379
I01
sg380
F2
sg381
F130.94709914320686
sg382
F43.5
sg383
F583.79008567931487
sg242
I01
sg384
F2
sg385
F300
sg386
S'centre'
p1473
sg388
I00
sg389
I00
sg348
I00
sg390
F2
sg89
g249
sg391
I01
sg392
I00
sg393
F0
sg394
(iclasses.files
OpenShotFile
p1474
(dp1475
g81
F14999
sg82
S''
sg84
I0
sg85
S'/home/jeff/digital_media_class/dig_med/Proj1_intro_vid/thumbnail/0f52f868-e6c9-11e6-8784-e8b1fc98bbfb_jpg_1.png'
p1476
sg87
S'/home/jeff/digital_media_class/dig_med/Proj1_intro_vid/pics/passions/FB_IMG_1471198122102.jpg'
p1477
sg89
Nsg90
g595
sg92
I0
sg52
I721
sg93
g1
sg47
I722
sg94
F300
sg95
F29.970029970029969
sg96
I1
sg97
S''
sg98
(F29.970029970029969
I0
tp1478
sg100
S''
sg50
S'0f52f869-e6c9-11e6-8784-e8b1fc98bbfb'
p1479
sbsg401
I00
sg402
F100
sg403
(lp1480
sg405
F0
sg406
I00
sg85
S'/home/jeff/digital_media_class/dig_med/Proj1_intro_vid/thumbnail/0f52f868-e6c9-11e6-8784-e8b1fc98bbfb_jpg_1.png'
p1481
sg87
S'FB_IMG_1471198122102.jpg'
p1482
sg409
S'centre'
p1483
sg244
I01
sg411
F2
sg50
S'40d6572a-e6ca-11e6-8784-e8b1fc98bbfb'
p1484
sba(iclasses.clip
clip
p1485
(dp1486
g362
g363
sg364
I00
sg365
I00
sg366
(dp1487
g368
(iclasses.keyframe
keyframe
p1488
(dp1489
g47
F100
sg48
F1
sS'y'
F0
sS'x'
F0
sg49
I0
sg50
S'491f09af-e6ca-11e6-8784-e8b1fc98bbfb'
p1490
sg52
F100
sbsg372
(iclasses.keyframe
keyframe
p1491
(dp1492
g47
F100
sg48
F1
sS'y'
F0
sS'x'
F0
sg49
I-1
sg50
S'491f09b0-e6ca-11e6-8784-e8b1fc98bbfb'
p1493
sg52
F100
sbssg376
F2
sg377
I00
sg378
F1
sg379
I01
sg380
F2
sg381
F132.94709914320686
sg382
F52.5
sg383
F608.79008567931487
sg242
I01
sg384
F2
sg385
F300
sg386
S'centre'
p1494
sg388
I00
sg389
I00
sg348
I00
sg390
F2
sg89
g249
sg391
I01
sg392
I00
sg393
F0
sg394
(iclasses.files
OpenShotFile
p1495
(dp1496
g81
F14999
sg82
S''
sg84
I0
sg85
S'/home/jeff/digital_media_class/dig_med/Proj1_intro_vid/thumbnail/0f52f86c-e6c9-11e6-8784-e8b1fc98bbfb_jpg_1.png'
p1497
sg87
S'/home/jeff/digital_media_class/dig_med/Proj1_intro_vid/pics/passions/FB_IMG_1471198043840.jpg'
p1498
sg89
Nsg90
g595
sg92
I0
sg52
I720
sg93
g1
sg47
I960
sg94
F300
sg95
F29.970029970029969
sg96
I1
sg97
S''
sg98
(F29.970029970029969
I0
tp1499
sg100
S''
sg50
S'0f52f86d-e6c9-11e6-8784-e8b1fc98bbfb'
p1500
sbsg401
I00
sg402
F100
sg403
(lp1501
sg405
F0
sg406
I00
sg85
S'/home/jeff/digital_media_class/dig_med/Proj1_intro_vid/thumbnail/0f52f86c-e6c9-11e6-8784-e8b1fc98bbfb_jpg_1.png'
p1502
sg87
S'FB_IMG_1471198043840.jpg'
p1503
sg409
S'centre'
p1504
sg244
I01
sg411
F2
sg50
S'491f09ae-e6ca-11e6-8784-e8b1fc98bbfb'
p1505
sba(iclasses.clip
clip
p1506
(dp1507
g362
g363
sg364
I00
sg365
I00
sg366
(dp1508
g368
(iclasses.keyframe
keyframe
p1509
(dp1510
g47
F100
sg48
F1
sS'y'
F0
sS'x'
F0
sg49
I0
sg50
S'53259135-e6ca-11e6-8784-e8b1fc98bbfb'
p1511
sg52
F100
sbsg372
(iclasses.keyframe
keyframe
p1512
(dp1513
g47
F100
sg48
F1
sS'y'
F0
sS'x'
F0
sg49
I-1
sg50
S'53259136-e6ca-11e6-8784-e8b1fc98bbfb'
p1514
sg52
F100
sbssg376
F2
sg377
I00
sg378
F1
sg379
I01
sg380
F2
sg381
F134.94709914320686
sg382
F47.5
sg383
F539.79008567931487
sg242
I01
sg384
F2
sg385
F300
sg386
S'centre'
p1515
sg388
I00
sg389
I00
sg348
I00
sg390
F2
sg89
g249
sg391
I01
sg392
I00
sg393
F0
sg394
(iclasses.files
OpenShotFile
p1516
(dp1517
g81
F14999
sg82
S''
sg84
I0
sg85
S'/home/jeff/digital_media_class/dig_med/Proj1_intro_vid/thumbnail/0f52f86e-e6c9-11e6-8784-e8b1fc98bbfb_jpg_1.png'
p1518
sg87
S'/home/jeff/digital_media_class/dig_med/Proj1_intro_vid/pics/passions/FB_IMG_1471198035733.jpg'
p1519
sg89
Nsg90
g595
sg92
I0
sg52
I720
sg93
g1
sg47
I960
sg94
F300
sg95
F29.970029970029969
sg96
I1
sg97
S''
sg98
(F29.970029970029969
I0
tp1520
sg100
S''
sg50
S'0f52f86f-e6c9-11e6-8784-e8b1fc98bbfb'
p1521
sbsg401
I00
sg402
F100
sg403
(lp1522
sg405
F0
sg406
I00
sg85
S'/home/jeff/digital_media_class/dig_med/Proj1_intro_vid/thumbnail/0f52f86e-e6c9-11e6-8784-e8b1fc98bbfb_jpg_1.png'
p1523
sg87
S'FB_IMG_1471198035733.jpg'
p1524
sg409
S'centre'
p1525
sg244
I01
sg411
F2
sg50
S'53259134-e6ca-11e6-8784-e8b1fc98bbfb'
p1526
sba(iclasses.clip
clip
p1527
(dp1528
g362
g363
sg364
I00
sg365
I00
sg366
(dp1529
g368
(iclasses.keyframe
keyframe
p1530
(dp1531
g47
F100
sg48
F1
sS'y'
F0
sS'x'
F0
sg49
I0
sg50
S'5d65323b-e6ca-11e6-8784-e8b1fc98bbfb'
p1532
sg52
F100
sbsg372
(iclasses.keyframe
keyframe
p1533
(dp1534
g47
F100
sg48
F1
sS'y'
F0
sS'x'
F0
sg49
I-1
sg50
S'5d65323c-e6ca-11e6-8784-e8b1fc98bbfb'
p1535
sg52
F100
sbssg376
F2
sg377
I00
sg378
F1
sg379
I01
sg380
F2
sg381
F136.94709914320686
sg382
F49.5
sg383
F206.79008567931487
sg242
I01
sg384
F2
sg385
F300
sg386
S'centre'
p1536
sg388
I00
sg389
I00
sg348
I00
sg390
F2
sg89
g249
sg391
I01
sg392
I00
sg393
F0
sg394
(iclasses.files
OpenShotFile
p1537
(dp1538
g81
F14999
sg82
S''
sg84
I0
sg85
S'/home/jeff/digital_media_class/dig_med/Proj1_intro_vid/thumbnail/0f52f870-e6c9-11e6-8784-e8b1fc98bbfb_jpg_1.png'
p1539
sg87
S'/home/jeff/digital_media_class/dig_med/Proj1_intro_vid/pics/passions/FB_IMG_1471198026204.jpg'
p1540
sg89
Nsg90
g595
sg92
I0
sg52
I720
sg93
g1
sg47
I960
sg94
F300
sg95
F29.970029970029969
sg96
I1
sg97
S''
sg98
(F29.970029970029969
I0
tp1541
sg100
S''
sg50
S'0f52f871-e6c9-11e6-8784-e8b1fc98bbfb'
p1542
sbsg401
I00
sg402
F100
sg403
(lp1543
sg405
F0
sg406
I00
sg85
S'/home/jeff/digital_media_class/dig_med/Proj1_intro_vid/thumbnail/0f52f870-e6c9-11e6-8784-e8b1fc98bbfb_jpg_1.png'
p1544
sg87
S'FB_IMG_1471198026204.jpg'
p1545
sg409
S'centre'
p1546
sg244
I01
sg411
F2
sg50
S'5d65323a-e6ca-11e6-8784-e8b1fc98bbfb'
p1547
sba(iclasses.clip
clip
p1548
(dp1549
g362
g363
sg364
I00
sg365
I00
sg366
(dp1550
g368
(iclasses.keyframe
keyframe
p1551
(dp1552
g47
F100
sg48
F1
sS'y'
F0
sS'x'
F0
sg49
I0
sg50
S'98335163-e6ca-11e6-8784-e8b1fc98bbfb'
p1553
sg52
F100
sbsg372
(iclasses.keyframe
keyframe
p1554
(dp1555
g47
F100
sg48
F1
sS'y'
F0
sS'x'
F0
sg49
I-1
sg50
S'98335164-e6ca-11e6-8784-e8b1fc98bbfb'
p1556
sg52
F100
sbssg376
F2
sg377
I00
sg378
F1
sg379
I01
sg380
F2
sg381
F138.94709914320686
sg382
F38.5
sg383
F482.79008567931487
sg242
I01
sg384
F2
sg385
F300
sg386
S'centre'
p1557
sg388
I00
sg389
I00
sg348
I00
sg390
F2
sg89
g249
sg391
I01
sg392
I00
sg393
F0
sg394
(iclasses.files
OpenShotFile
p1558
(dp1559
g81
F14999
sg82
S''
sg84
I0
sg85
S'/home/jeff/digital_media_class/dig_med/Proj1_intro_vid/thumbnail/0f52f872-e6c9-11e6-8784-e8b1fc98bbfb_jpg_1.png'
p1560
sg87
S'/home/jeff/digital_media_class/dig_med/Proj1_intro_vid/pics/passions/FB_IMG_1471197865658.jpg'
p1561
sg89
Nsg90
g595
sg92
I0
sg52
I713
sg93
g1
sg47
I714
sg94
F300
sg95
F29.970029970029969
sg96
I1
sg97
S''
sg98
(F29.970029970029969
I0
tp1562
sg100
S''
sg50
S'0f52f873-e6c9-11e6-8784-e8b1fc98bbfb'
p1563
sbsg401
I00
sg402
F100
sg403
(lp1564
sg405
F0
sg406
I00
sg85
S'/home/jeff/digital_media_class/dig_med/Proj1_intro_vid/thumbnail/0f52f872-e6c9-11e6-8784-e8b1fc98bbfb_jpg_1.png'
p1565
sg87
S'FB_IMG_1471197865658.jpg'
p1566
sg409
S'centre'
p1567
sg244
I01
sg411
F2
sg50
S'98335162-e6ca-11e6-8784-e8b1fc98bbfb'
p1568
sba(iclasses.clip
clip
p1569
(dp1570
g362
g363
sg364
I00
sg365
I00
sg366
(dp1571
g368
(iclasses.keyframe
keyframe
p1572
(dp1573
g47
F100
sg48
F1
sS'y'
F0
sS'x'
F0
sg49
I0
sg50
S'9fc32011-e6ca-11e6-8784-e8b1fc98bbfb'
p1574
sg52
F100
sbsg372
(iclasses.keyframe
keyframe
p1575
(dp1576
g47
F100
sg48
F1
sS'y'
F0
sS'x'
F0
sg49
I-1
sg50
S'9fc32012-e6ca-11e6-8784-e8b1fc98bbfb'
p1577
sg52
F100
sbssg376
F2
sg377
I00
sg378
F1
sg379
I01
sg380
F2
sg381
F140.94709914320686
sg382
F39.5
sg383
F487.79008567931487
sg242
I01
sg384
F2
sg385
F300
sg386
S'centre'
p1578
sg388
I00
sg389
I00
sg348
I00
sg390
F2
sg89
g249
sg391
I01
sg392
I00
sg393
F0
sg394
(iclasses.files
OpenShotFile
p1579
(dp1580
g81
F14999
sg82
S''
sg84
I0
sg85
S'/home/jeff/digital_media_class/dig_med/Proj1_intro_vid/thumbnail/0f52f874-e6c9-11e6-8784-e8b1fc98bbfb_jpg_1.png'
p1581
sg87
S'/home/jeff/digital_media_class/dig_med/Proj1_intro_vid/pics/passions/FB_IMG_1471198112717.jpg'
p1582
sg89
Nsg90
g595
sg92
I0
sg52
I717
sg93
g1
sg47
I718
sg94
F300
sg95
F29.970029970029969
sg96
I1
sg97
S''
sg98
(F29.970029970029969
I0
tp1583
sg100
S''
sg50
S'0f52f875-e6c9-11e6-8784-e8b1fc98bbfb'
p1584
sbsg401
I00
sg402
F100
sg403
(lp1585
sg405
F0
sg406
I00
sg85
S'/home/jeff/digital_media_class/dig_med/Proj1_intro_vid/thumbnail/0f52f874-e6c9-11e6-8784-e8b1fc98bbfb_jpg_1.png'
p1586
sg87
S'FB_IMG_1471198112717.jpg'
p1587
sg409
S'centre'
p1588
sg244
I01
sg411
F2
sg50
S'9fc32010-e6ca-11e6-8784-e8b1fc98bbfb'
p1589
sba(iclasses.clip
clip
p1590
(dp1591
g362
g363
sg364
I00
sg365
I00
sg366
(dp1592
g368
(iclasses.keyframe
keyframe
p1593
(dp1594
g47
F100
sg48
F1
sS'y'
F0
sS'x'
F0
sg49
I0
sg50
S'aed351b1-e6ca-11e6-8784-e8b1fc98bbfb'
p1595
sg52
F100
sbsg372
(iclasses.keyframe
keyframe
p1596
(dp1597
g47
F100
sg48
F1
sS'y'
F0
sS'x'
F0
sg49
I-1
sg50
S'aed351b2-e6ca-11e6-8784-e8b1fc98bbfb'
p1598
sg52
F100
sbssg376
F2
sg377
I00
sg378
F1
sg379
I01
sg380
F2
sg381
F142.94709914320686
sg382
F35.5
sg383
F710.79008567931487
sg242
I01
sg384
F2
sg385
F300
sg386
S'centre'
p1599
sg388
I00
sg389
I00
sg348
I00
sg390
F2
sg89
g249
sg391
I01
sg392
I00
sg393
F0
sg394
(iclasses.files
OpenShotFile
p1600
(dp1601
g81
F14999
sg82
S''
sg84
I0
sg85
S'/home/jeff/digital_media_class/dig_med/Proj1_intro_vid/thumbnail/108cedbb-e6c9-11e6-8784-e8b1fc98bbfb_jpg_1.png'
p1602
sg87
S'/home/jeff/digital_media_class/dig_med/Proj1_intro_vid/pics/passions/20160817_164158.jpg'
p1603
sg89
Nsg90
g595
sg92
I0
sg52
I4032
sg93
g1
sg47
I3024
sg94
F300
sg95
F29.970029970029969
sg96
I1
sg97
S''
sg98
(F29.970029970029969
I0
tp1604
sg100
S''
sg50
S'108cedbc-e6c9-11e6-8784-e8b1fc98bbfb'
p1605
sbsg401
I00
sg402
F100
sg403
(lp1606
sg405
F0
sg406
I00
sg85
S'/home/jeff/digital_media_class/dig_med/Proj1_intro_vid/thumbnail/108cedbb-e6c9-11e6-8784-e8b1fc98bbfb_jpg_1.png'
p1607
sg87
S'20160817_164158.jpg'
p1608
sg409
S'centre'
p1609
sg244
I01
sg411
F2
sg50
S'aed351b0-e6ca-11e6-8784-e8b1fc98bbfb'
p1610
sba(iclasses.clip
clip
p1611
(dp1612
g362
g363
sg364
I00
sg365
I00
sg366
(dp1613
g368
(iclasses.keyframe
keyframe
p1614
(dp1615
g47
F100
sg48
F1
sS'y'
F0
sS'x'
F0
sg49
I0
sg50
S'bc1c2d43-e6ca-11e6-8784-e8b1fc98bbfb'
p1616
sg52
F100
sbsg372
(iclasses.keyframe
keyframe
p1617
(dp1618
g47
F100
sg48
F1
sS'y'
F0
sS'x'
F0
sg49
I-1
sg50
S'bc1c2d44-e6ca-11e6-8784-e8b1fc98bbfb'
p1619
sg52
F100
sbssg376
F2
sg377
I00
sg378
F1
sg379
I01
sg380
F2
sg381
F144.94709914320686
sg382
F44.5
sg383
F872.79008567931487
sg242
I01
sg384
F2
sg385
F300
sg386
S'centre'
p1620
sg388
I00
sg389
I00
sg348
I00
sg390
F2
sg89
g249
sg391
I01
sg392
I00
sg393
F0
sg394
(iclasses.files
OpenShotFile
p1621
(dp1622
g81
F14999
sg82
S''
sg84
I0
sg85
S'/home/jeff/digital_media_class/dig_med/Proj1_intro_vid/thumbnail/108cedbd-e6c9-11e6-8784-e8b1fc98bbfb_jpg_1.png'
p1623
sg87
S'/home/jeff/digital_media_class/dig_med/Proj1_intro_vid/pics/passions/WP_20150607_001.jpg'
p1624
sg89
Nsg90
g595
sg92
I0
sg52
I719
sg93
g1
sg47
I719
sg94
F300
sg95
F29.970029970029969
sg96
I1
sg97
S''
sg98
(F29.970029970029969
I0
tp1625
sg100
S''
sg50
S'108cedbe-e6c9-11e6-8784-e8b1fc98bbfb'
p1626
sbsg401
I00
sg402
F100
sg403
(lp1627
sg405
F0
sg406
I00
sg85
S'/home/jeff/digital_media_class/dig_med/Proj1_intro_vid/thumbnail/108cedbd-e6c9-11e6-8784-e8b1fc98bbfb_jpg_1.png'
p1628
sg87
S'WP_20150607_001.jpg'
p1629
sg409
S'centre'
p1630
sg244
I01
sg411
F2
sg50
S'bc1c2d42-e6ca-11e6-8784-e8b1fc98bbfb'
p1631
sba(iclasses.clip
clip
p1632
(dp1633
g362
g363
sg364
I00
sg365
I00
sg366
(dp1634
g368
(iclasses.keyframe
keyframe
p1635
(dp1636
g47
F100
sg48
F1
sS'y'
F0
sS'x'
F0
sg49
I0
sg50
S'c47a32eb-e6ca-11e6-8784-e8b1fc98bbfb'
p1637
sg52
F100
sbsg372
(iclasses.keyframe
keyframe
p1638
(dp1639
g47
F100
sg48
F1
sS'y'
F0
sS'x'
F0
sg49
I-1
sg50
S'c47a32ec-e6ca-11e6-8784-e8b1fc98bbfb'
p1640
sg52
F100
sbssg376
F2
sg377
I00
sg378
F1
sg379
I01
sg380
F2
sg381
F146.94709914320686
sg382
F47.5
sg383
F540.79008567931487
sg242
I01
sg384
F2
sg385
F300
sg386
S'centre'
p1641
sg388
I00
sg389
I00
sg348
I00
sg390
F2
sg89
g249
sg391
I01
sg392
I00
sg393
F0
sg394
(iclasses.files
OpenShotFile
p1642
(dp1643
g81
F14999
sg82
S''
sg84
I0
sg85
S'/home/jeff/digital_media_class/dig_med/Proj1_intro_vid/thumbnail/108cedb7-e6c9-11e6-8784-e8b1fc98bbfb_jpg_1.png'
p1644
sg87
S'/home/jeff/digital_media_class/dig_med/Proj1_intro_vid/pics/passions/20160602_155727.jpg'
p1645
sg89
Nsg90
g595
sg92
I0
sg52
I2937
sg93
g1
sg47
I2938
sg94
F300
sg95
F29.970029970029969
sg96
I1
sg97
S''
sg98
(F29.970029970029969
I0
tp1646
sg100
S''
sg50
S'108cedb8-e6c9-11e6-8784-e8b1fc98bbfb'
p1647
sbsg401
I00
sg402
F100
sg403
(lp1648
sg405
F0
sg406
I00
sg85
S'/home/jeff/digital_media_class/dig_med/Proj1_intro_vid/thumbnail/108cedb7-e6c9-11e6-8784-e8b1fc98bbfb_jpg_1.png'
p1649
sg87
S'20160602_155727.jpg'
p1650
sg409
S'centre'
p1651
sg244
I01
sg411
F2
sg50
S'c47a32ea-e6ca-11e6-8784-e8b1fc98bbfb'
p1652
sba(iclasses.clip
clip
p1653
(dp1654
g362
g363
sg364
I00
sg365
I00
sg366
(dp1655
g368
(iclasses.keyframe
keyframe
p1656
(dp1657
g47
F100
sg48
F1
sS'y'
F0
sS'x'
F0
sg49
I0
sg50
S'6fabe395-e6ca-11e6-8784-e8b1fc98bbfb'
p1658
sg52
F100
sbsg372
(iclasses.keyframe
keyframe
p1659
(dp1660
g47
F100
sg48
F1
sS'y'
F0
sS'x'
F0
sg49
I-1
sg50
S'6fabe396-e6ca-11e6-8784-e8b1fc98bbfb'
p1661
sg52
F100
sbssg376
F2
sg377
I00
sg378
F1
sg379
I01
sg380
F2
sg381
F148.94709914320686
sg382
F112.5
sg383
F15104.5
sg242
I01
sg384
F2
sg385
F300
sg346
I00
sg386
S'centre'
p1662
sg388
I00
sg389
I00
sg348
I00
sg390
F2
sg89
g249
sg391
I01
sg392
I00
sg393
F0
sg394
(iclasses.files
OpenShotFile
p1663
(dp1664
g81
F14999
sg82
S''
sg84
I0
sg85
S'/home/jeff/digital_media_class/dig_med/Proj1_intro_vid/thumbnail/108cedb9-e6c9-11e6-8784-e8b1fc98bbfb_jpg_1.png'
p1665
sg87
S'/home/jeff/digital_media_class/dig_med/Proj1_intro_vid/pics/passions/20160602_233805.jpg'
p1666
sg89
Nsg90
g595
sg92
I0
sg52
I2888
sg93
g1
sg47
I2888
sg94
F300
sg95
F29.970029970029969
sg96
I1
sg97
S''
sg98
(F29.970029970029969
I0
tp1667
sg100
S''
sg50
S'108cedba-e6c9-11e6-8784-e8b1fc98bbfb'
p1668
sbsg401
I00
sg402
F100
sg403
(lp1669
sg405
F0
sg406
I00
sg85
S'/home/jeff/digital_media_class/dig_med/Proj1_intro_vid/thumbnail/108cedb9-e6c9-11e6-8784-e8b1fc98bbfb_jpg_1.png'
p1670
sg87
S'20160602_233805.jpg'
p1671
sg409
S'centre'
p1672
sg244
I01
sg411
F2.2200000000000002
sg50
S'6fabe394-e6ca-11e6-8784-e8b1fc98bbfb'
p1673
sba(iclasses.clip
clip
p1674
(dp1675
g362
g363
sg364
I00
sg365
I00
sg366
(dp1676
g368
(iclasses.keyframe
keyframe
p1677
(dp1678
g47
F100
sg48
F1
sS'y'
F0
sS'x'
F0
sg49
I0
sg50
S'e3ebeecb-e6ca-11e6-8784-e8b1fc98bbfb'
p1679
sg52
F100
sbsg372
(iclasses.keyframe
keyframe
p1680
(dp1681
g47
F100
sg48
F1
sS'y'
F0
sS'x'
F0
sg49
I-1
sg50
S'e3ebeecc-e6ca-11e6-8784-e8b1fc98bbfb'
p1682
sg52
F100
sbssg376
F2
sg377
I00
sg378
F1
sg379
I01
sg380
F2
sg381
F151.16709914320685
sg382
F52.5
sg383
F607.79008567931487
sg242
I01
sg384
F2
sg385
F300
sg386
S'centre'
p1683
sg388
I00
sg389
I00
sg348
I00
sg390
F2
sg89
g249
sg391
I01
sg392
I00
sg393
F0
sg394
(iclasses.files
OpenShotFile
p1684
(dp1685
g81
F14999
sg82
S''
sg84
I0
sg85
S'/home/jeff/digital_media_class/dig_med/Proj1_intro_vid/thumbnail/10fd8c94-e6c0-11e6-8784-e8b1fc98bbfb_png_1.png'
p1686
sg87
S'/home/jeff/digital_media_class/dig_med/Proj1_intro_vid/art/now.png'
p1687
sg89
Nsg90
g266
sg92
I0
sg52
I400
sg93
g1
sg47
I640
sg94
F300
sg95
F29.970029970029969
sg96
I1
sg97
S''
sg98
(F29.970029970029969
I0
tp1688
sg100
S''
sg50
S'10fd8c95-e6c0-11e6-8784-e8b1fc98bbfb'
p1689
sbsg401
I00
sg402
F100
sg403
(lp1690
sg405
F0
sg406
I00
sg85
S'/home/jeff/digital_media_class/dig_med/Proj1_intro_vid/thumbnail/10fd8c94-e6c0-11e6-8784-e8b1fc98bbfb_png_1.png'
p1691
sg87
S'now.png'
p1692
sg409
S'centre'
p1693
sg244
I01
sg411
F2
sg50
S'e3ebeeca-e6ca-11e6-8784-e8b1fc98bbfb'
p1694
sba(iclasses.clip
clip
p1695
(dp1696
g362
g363
sg364
I00
sg365
I00
sg366
(dp1697
g368
(iclasses.keyframe
keyframe
p1698
(dp1699
g47
F100
sS'x'
F0
sS'y'
F0
sg48
F1
sg49
I0
sg50
S'f5385903-e6ca-11e6-8784-e8b1fc98bbfb'
p1700
sg52
F100
sbsg372
(iclasses.keyframe
keyframe
p1701
(dp1702
g47
F100
sS'x'
F0
sS'y'
F0
sg48
F1
sg49
I-1
sg50
S'f5385904-e6ca-11e6-8784-e8b1fc98bbfb'
p1703
sg52
F100
sbssg376
F2
sg377
I00
sg378
F1
sg379
I01
sg380
F2
sg381
F153.16709914320685
sg382
F108.5
sg383
F15450.5
sg242
I01
sg384
F2
sg385
F300
sg386
S'centre'
p1704
sg388
I00
sg389
I00
sg348
I00
sg390
F2
sg89
g249
sg391
I01
sg392
I00
sg393
F0
sg394
(iclasses.files
OpenShotFile
p1705
(dp1706
g81
F14999
sg82
S''
sg84
I0
sg85
S'/home/jeff/digital_media_class/dig_med/Proj1_intro_vid/thumbnail/108cedbf-e6c9-11e6-8784-e8b1fc98bbfb_png_1.png'
p1707
sg87
S'/home/jeff/digital_media_class/dig_med/Proj1_intro_vid/pics/passions/terminal.png'
p1708
sg89
Nsg90
g595
sg92
I0
sg52
I1017
sg93
g1
sg47
I826
sg94
F300
sg95
F29.970029970029969
sg96
I1
sg97
S''
sg98
(F29.970029970029969
I0
tp1709
sg100
S''
sg50
S'108cedc0-e6c9-11e6-8784-e8b1fc98bbfb'
p1710
sbsg401
I00
sg402
F100
sg403
(lp1711
sg405
F0
sg406
I00
sg85
S'/home/jeff/digital_media_class/dig_med/Proj1_intro_vid/thumbnail/108cedbf-e6c9-11e6-8784-e8b1fc98bbfb_png_1.png'
p1712
sg87
S'terminal.png'
p1713
sg409
S'centre'
p1714
sg244
I01
sg411
F2.5
sg50
S'f5385902-e6ca-11e6-8784-e8b1fc98bbfb'
p1715
sba(iclasses.clip
clip
p1716
(dp1717
g362
g363
sg364
I00
sg365
I00
sg366
(dp1718
g368
(iclasses.keyframe
keyframe
p1719
(dp1720
g47
F100
sS'x'
F0
sS'y'
F0
sg48
F1
sg49
I0
sg50
S'fd2e92ad-e6ca-11e6-8784-e8b1fc98bbfb'
p1721
sg52
F100
sbsg372
(iclasses.keyframe
keyframe
p1722
(dp1723
g47
F100
sS'x'
F0
sS'y'
F0
sg48
F1
sg49
I-1
sg50
S'fd2e92ae-e6ca-11e6-8784-e8b1fc98bbfb'
p1724
sg52
F100
sbssg376
F2
sg377
I00
sg378
F1
sg379
I01
sg380
F2
sg381
F155.66709914320685
sg382
F109.5
sg383
F15608.5
sg242
I01
sg384
F2
sg385
F300
sg346
I00
sg386
S'centre'
p1725
sg388
I00
sg389
I00
sg348
I00
sg390
F2
sg89
g249
sg391
I01
sg392
I00
sg393
F0
sg394
(iclasses.files
OpenShotFile
p1726
(dp1727
g81
F14999
sg82
S''
sg84
I0
sg85
S'/home/jeff/digital_media_class/dig_med/Proj1_intro_vid/thumbnail/108cedc1-e6c9-11e6-8784-e8b1fc98bbfb_png_1.png'
p1728
sg87
S'/home/jeff/digital_media_class/dig_med/Proj1_intro_vid/pics/passions/atom.png'
p1729
sg89
Nsg90
g595
sg92
I0
sg52
I1024
sg93
g1
sg47
I1402
sg94
F300
sg95
F29.970029970029969
sg96
I1
sg97
S''
sg98
(F29.970029970029969
I0
tp1730
sg100
S''
sg50
S'11ab04e2-e6c9-11e6-8784-e8b1fc98bbfb'
p1731
sbsg401
I00
sg402
F100
sg403
(lp1732
sg405
F0
sg406
I00
sg85
S'/home/jeff/digital_media_class/dig_med/Proj1_intro_vid/thumbnail/108cedc1-e6c9-11e6-8784-e8b1fc98bbfb_png_1.png'
p1733
sg87
S'atom.png'
p1734
sg409
S'centre'
p1735
sg244
I01
sg411
F2.5
sg50
S'fd2e92ac-e6ca-11e6-8784-e8b1fc98bbfb'
p1736
sba(iclasses.clip
clip
p1737
(dp1738
g362
g363
sg364
I00
sg365
I00
sg366
(dp1739
g368
(iclasses.keyframe
keyframe
p1740
(dp1741
g47
F100
sg48
F1
sS'y'
F0
sS'x'
F0
sg49
I0
sg50
S'26b16f3d-e6cb-11e6-8784-e8b1fc98bbfb'
p1742
sg52
F100
sbsg372
(iclasses.keyframe
keyframe
p1743
(dp1744
g47
F100
sg48
F1
sS'y'
F0
sS'x'
F0
sg49
I-1
sg50
S'26b16f3e-e6cb-11e6-8784-e8b1fc98bbfb'
p1745
sg52
F100
sbssg376
F2
sg377
I00
sg378
F1
sg379
I01
sg380
F2
sg381
F158.16709914320685
sg382
F34.5
sg383
F669.79008567931487
sg242
I01
sg384
F2
sg385
F300
sg386
S'centre'
p1746
sg388
I00
sg389
I00
sg348
I00
sg390
F2
sg89
g249
sg391
I01
sg392
I00
sg393
F0
sg394
(iclasses.files
OpenShotFile
p1747
(dp1748
g81
F14999
sg82
S''
sg84
I0
sg85
S'/home/jeff/digital_media_class/dig_med/Proj1_intro_vid/thumbnail/11ab04e3-e6c9-11e6-8784-e8b1fc98bbfb_png_1.png'
p1749
sg87
S'/home/jeff/digital_media_class/dig_med/Proj1_intro_vid/pics/passions/code.png'
p1750
sg89
Nsg90
g595
sg92
I0
sg52
I754
sg93
g1
sg47
I726
sg94
F300
sg95
F29.970029970029969
sg96
I1
sg97
S''
sg98
(F29.970029970029969
I0
tp1751
sg100
S''
sg50
S'11ab04e4-e6c9-11e6-8784-e8b1fc98bbfb'
p1752
sbsg401
I00
sg402
F100
sg403
(lp1753
sg405
F0
sg406
I00
sg85
S'/home/jeff/digital_media_class/dig_med/Proj1_intro_vid/thumbnail/11ab04e3-e6c9-11e6-8784-e8b1fc98bbfb_png_1.png'
p1754
sg87
S'code.png'
p1755
sg409
S'centre'
p1756
sg244
I01
sg411
F2.5
sg50
S'26b16f3c-e6cb-11e6-8784-e8b1fc98bbfb'
p1757
sba(iclasses.clip
clip
p1758
(dp1759
g362
g363
sg364
I00
sg365
I00
sg366
(dp1760
g368
(iclasses.keyframe
keyframe
p1761
(dp1762
g47
F100
sg48
F1
sS'y'
F0
sS'x'
F0
sg49
I0
sg50
S'38775c23-e6cb-11e6-8784-e8b1fc98bbfb'
p1763
sg52
F100
sbsg372
(iclasses.keyframe
keyframe
p1764
(dp1765
g47
F100
sg48
F1
sS'y'
F0
sS'x'
F0
sg49
I-1
sg50
S'38775c24-e6cb-11e6-8784-e8b1fc98bbfb'
p1766
sg52
F100
sbssg376
F2
sg377
I00
sg378
F1
sg379
I01
sg380
F2
sg381
F160.66709914320685
sg382
F34.5
sg383
F712.79008567931487
sg242
I01
sg384
F2
sg385
F300
sg386
S'centre'
p1767
sg388
I00
sg389
I00
sg348
I00
sg390
F2
sg89
g249
sg391
I01
sg392
I00
sg393
F0
sg394
(iclasses.files
OpenShotFile
p1768
(dp1769
g81
F14999
sg82
S''
sg84
I0
sg85
S'/home/jeff/digital_media_class/dig_med/Proj1_intro_vid/thumbnail/11ab04e5-e6c9-11e6-8784-e8b1fc98bbfb_png_1.png'
p1770
sg87
S'/home/jeff/digital_media_class/dig_med/Proj1_intro_vid/pics/passions/sig-game.png'
p1771
sg89
Nsg90
g595
sg92
I0
sg52
I1026
sg93
g1
sg47
I1203
sg94
F300
sg95
F29.970029970029969
sg96
I1
sg97
S''
sg98
(F29.970029970029969
I0
tp1772
sg100
S''
sg50
S'11ab04e6-e6c9-11e6-8784-e8b1fc98bbfb'
p1773
sbsg401
I00
sg402
F100
sg403
(lp1774
sg405
F0
sg406
I00
sg85
S'/home/jeff/digital_media_class/dig_med/Proj1_intro_vid/thumbnail/11ab04e5-e6c9-11e6-8784-e8b1fc98bbfb_png_1.png'
p1775
sg87
S'sig-game.png'
p1776
sg409
S'centre'
p1777
sg244
I01
sg411
F2
sg50
S'38775c22-e6cb-11e6-8784-e8b1fc98bbfb'
p1778
sba(iclasses.clip
clip
p1779
(dp1780
g362
g363
sg364
I00
sg365
I00
sg366
(dp1781
g368
(iclasses.keyframe
keyframe
p1782
(dp1783
g47
F100
sS'x'
F0
sS'y'
F0
sg48
F1
sg49
I0
sg50
S'4275567b-e6cb-11e6-8784-e8b1fc98bbfb'
p1784
sg52
F100
sbsg372
(iclasses.keyframe
keyframe
p1785
(dp1786
g47
F100
sS'x'
F0
sS'y'
F0
sg48
F1
sg49
I-1
sg50
S'4275567c-e6cb-11e6-8784-e8b1fc98bbfb'
p1787
sg52
F100
sbssg376
F2
sg377
I00
sg378
F1
sg379
I01
sg380
F2
sg381
F162.66709914320685
sg382
F92.5
sg383
F16419.5
sg242
I01
sg384
F2
sg385
F300
sg386
S'centre'
p1788
sg388
I00
sg389
I00
sg348
I00
sg390
F2
sg89
g249
sg391
I01
sg392
I00
sg393
F0
sg394
(iclasses.files
OpenShotFile
p1789
(dp1790
g81
F14999
sg82
S''
sg84
I0
sg85
S'/home/jeff/digital_media_class/dig_med/Proj1_intro_vid/thumbnail/11ab04e7-e6c9-11e6-8784-e8b1fc98bbfb_jpg_1.png'
p1791
sg87
S'/home/jeff/digital_media_class/dig_med/Proj1_intro_vid/pics/passions/desk.jpg'
p1792
sg89
Nsg90
g595
sg92
I0
sg52
I1440
sg93
g1
sg47
I2560
sg94
F300
sg95
F29.970029970029969
sg96
I1
sg97
S''
sg98
(F29.970029970029969
I0
tp1793
sg100
S''
sg50
S'11ab04e8-e6c9-11e6-8784-e8b1fc98bbfb'
p1794
sbsg401
I00
sg402
F100
sg403
(lp1795
sg405
F0
sg406
I00
sg85
S'/home/jeff/digital_media_class/dig_med/Proj1_intro_vid/thumbnail/11ab04e7-e6c9-11e6-8784-e8b1fc98bbfb_jpg_1.png'
p1796
sg87
S'desk.jpg'
p1797
sg409
S'centre'
p1798
sg244
I01
sg411
F2.2000000000000002
sg50
S'4275567a-e6cb-11e6-8784-e8b1fc98bbfb'
p1799
sba(iclasses.clip
clip
p1800
(dp1801
g362
g363
sg364
I00
sg365
I00
sg366
(dp1802
g368
(iclasses.keyframe
keyframe
p1803
(dp1804
g47
F100
sg48
F1
sS'y'
F0
sS'x'
F0
sg49
I0
sg50
S'5fb2356f-e6cb-11e6-8784-e8b1fc98bbfb'
p1805
sg52
F100
sbsg372
(iclasses.keyframe
keyframe
p1806
(dp1807
g47
F100
sg48
F1
sS'y'
F0
sS'x'
F0
sg49
I-1
sg50
S'5fb23570-e6cb-11e6-8784-e8b1fc98bbfb'
p1808
sg52
F100
sbssg376
F2
sg377
I00
sg378
F1
sg379
I01
sg380
F2
sg381
F164.86709914320687
sg382
F31.5
sg383
F950.79008567931305
sg242
I01
sg384
F2
sg385
F300
sg386
S'centre'
p1809
sg388
I00
sg389
I00
sg348
I00
sg390
F2
sg89
g249
sg391
I01
sg392
I00
sg393
F0
sg394
(iclasses.files
OpenShotFile
p1810
(dp1811
g81
F14999
sg82
S''
sg84
I0
sg85
S'/home/jeff/digital_media_class/dig_med/Proj1_intro_vid/thumbnail/10fd8c96-e6c0-11e6-8784-e8b1fc98bbfb_png_1.png'
p1812
sg87
S'/home/jeff/digital_media_class/dig_med/Proj1_intro_vid/art/end.png'
p1813
sg89
Nsg90
g266
sg92
I0
sg52
I400
sg93
g1
sg47
I640
sg94
F300
sg95
F29.970029970029969
sg96
I1
sg97
S''
sg98
(F29.970029970029969
I0
tp1814
sg100
S''
sg50
S'10fd8c97-e6c0-11e6-8784-e8b1fc98bbfb'
p1815
sbsg401
I00
sg402
F100
sg403
(lp1816
sg405
F0
sg406
I00
sg85
S'/home/jeff/digital_media_class/dig_med/Proj1_intro_vid/thumbnail/10fd8c96-e6c0-11e6-8784-e8b1fc98bbfb_png_1.png'
p1817
sg87
S'end.png'
p1818
sg409
S'centre'
p1819
sg244
I01
sg411
F3
sg50
S'5fb2356e-e6cb-11e6-8784-e8b1fc98bbfb'
p1820
sbasg87
S'Track 1'
p1821
sg89
g20
sg242
I01
sg243
I71
sg244
I01
sg245
I130
sS'x'
I10
sg246
(lp1822
sg50
S'f50a9900-e6bc-11e6-8784-e8b1fc98bbfb'
p1823
sbasS'markers'
p1824
(lp1825
sS'project'
p1826
g1
sS'length'
p1827
F600
sS'ruler_time'
p1828
Nsg64
F2
sS'play_head_line'
p1829
NsbasS'refresh_xml'
p1830
I00
sS'project_type'
p1831
S'DV/DVD Widescreen PAL'
p1832
sS'sequences'
p1833
(lp1834
g20
asS'DEBUG'
p1835
I01
sS'UI_DIR'
p1836
S'/usr/share/openshot/openshot/windows/ui'
p1837
sS'PROFILES_DIR'
p1838
S'/usr/share/openshot/openshot/profiles'
p1839
sS'BASE_DIR'
p1840
S'/usr/share/openshot'
p1841
sS'canvas'
p1842
NsS'USER_TRANSITIONS_DIR'
p1843
S'/home/jeff/.openshot/user_transitions'
p1844
sS'EFFECTS_DIR'
p1845
S'/usr/share/openshot/openshot/effects'
p1846
sS'BLENDER_DIR'
p1847
S'/usr/share/openshot/openshot/blender'
p1848
sS'EXPORT_PRESETS_DIR'
p1849
S'/usr/share/openshot/openshot/export_presets'
p1850
sg24
S'j_gould_intro_video'
p1851
sS'file_type'
p1852
S'ascii'
p1853
sS'theme'
p1854
Vsimple
p1855
sS'project_folder'
p1856
(iclasses.files
OpenShotFolder
p1857
(dp1858
S'queue'
p1859
(lp1860
sg24
S''
sg75
NsS'items'
p1861
(lp1862
g79
ag126
ag189
ag147
ag168
ag210
ag231
ag262
ag676
ag949
a(iclasses.files
OpenShotFile
p1863
(dp1864
g81
F14999
sg82
S''
sg84
I0
sg85
S'/home/jeff/digital_media_class/dig_med/Proj1_intro_vid/thumbnail/10fd8c92-e6c0-11e6-8784-e8b1fc98bbfb_png_1.png'
p1865
sg87
S'/home/jeff/digital_media_class/dig_med/Proj1_intro_vid/art/fun.png'
p1866
sg89
Nsg90
g266
sg92
I0
sg52
I400
sg93
g1
sg47
I640
sg94
F300
sg95
F29.970029970029969
sg96
I1
sg97
S''
sg98
(F29.970029970029969
I0
tp1867
sg100
S''
sg50
S'10fd8c93-e6c0-11e6-8784-e8b1fc98bbfb'
p1868
sbag1684
ag1810
ag570
ag423
ag349
ag1096
ag305
ag284
ag326
ag395
a(iclasses.files
OpenShotFile
p1869
(dp1870
g81
F14999
sg82
S''
sg84
I0
sg85
S'/home/jeff/digital_media_class/dig_med/Proj1_intro_vid/thumbnail/d37477da-e6c0-11e6-8784-e8b1fc98bbfb_jpg_1.png'
p1871
sg87
S'/home/jeff/digital_media_class/dig_med/Proj1_intro_vid/pics/bbdoll/bbdoll_black_shirt50.jpg'
p1872
sg89
Nsg90
g266
sg92
I0
sg52
I4032
sg93
g1
sg47
I3024
sg94
F300
sg95
F29.970029970029969
sg96
I1
sg97
S''
sg98
(F29.970029970029969
I0
tp1873
sg100
S''
sg50
S'd37477db-e6c0-11e6-8784-e8b1fc98bbfb'
p1874
sbag444
ag507
a(iclasses.files
OpenShotFile
p1875
(dp1876
g81
F14999
sg82
S''
sg84
I0
sg85
S'/home/jeff/digital_media_class/dig_med/Proj1_intro_vid/thumbnail/d37477e0-e6c0-11e6-8784-e8b1fc98bbfb_jpg_1.png'
p1877
sg87
S'/home/jeff/digital_media_class/dig_med/Proj1_intro_vid/pics/bbdoll/me-bbd.jpg'
p1878
sg89
Nsg90
g266
sg92
I0
sg52
I720
sg93
g1
sg47
I960
sg94
F300
sg95
F29.970029970029969
sg96
I1
sg97
S''
sg98
(F29.970029970029969
I0
tp1879
sg100
S''
sg50
S'd37477e1-e6c0-11e6-8784-e8b1fc98bbfb'
p1880
sbag528
ag549
ag486
ag465
ag591
ag613
a(iclasses.files
OpenShotFile
p1881
(dp1882
g81
F14999
sg82
S''
sg84
I0
sg85
S'/home/jeff/digital_media_class/dig_med/Proj1_intro_vid/thumbnail/d5323680-e6c1-11e6-8784-e8b1fc98bbfb_jpg_1.png'
p1883
sg87
S'/home/jeff/digital_media_class/dig_med/Proj1_intro_vid/pics/kids/austan.jpg'
p1884
sg89
Nsg90
g595
sg92
I0
sg52
I640
sg93
g1
sg47
I640
sg94
F300
sg95
F29.970029970029969
sg96
I1
sg97
S''
sg98
(F29.970029970029969
I0
tp1885
sg100
S''
sg50
S'd5323681-e6c1-11e6-8784-e8b1fc98bbfb'
p1886
sba(iclasses.files
OpenShotFile
p1887
(dp1888
g81
F14999
sg82
S''
sg84
I0
sg85
S'/home/jeff/digital_media_class/dig_med/Proj1_intro_vid/thumbnail/d5323682-e6c1-11e6-8784-e8b1fc98bbfb_jpg_1.png'
p1889
sg87
S'/home/jeff/digital_media_class/dig_med/Proj1_intro_vid/pics/kids/kelsey.jpg'
p1890
sg89
Nsg90
g595
sg92
I0
sg52
I960
sg93
g1
sg47
I960
sg94
F300
sg95
F29.970029970029969
sg96
I1
sg97
S''
sg98
(F29.970029970029969
I0
tp1891
sg100
S''
sg50
S'd5323683-e6c1-11e6-8784-e8b1fc98bbfb'
p1892
sbag655
ag634
ag697
ag760
ag781
ag823
ag844
ag739
ag718
ag865
ag802
ag907
ag928
ag886
ag970
ag1012
ag991
ag1075
a(iclasses.files
OpenShotFile
p1893
(dp1894
g81
F14999
sg82
S''
sg84
I0
sg85
S'/home/jeff/digital_media_class/dig_med/Proj1_intro_vid/thumbnail/f2baa0c6-e6c4-11e6-8784-e8b1fc98bbfb_jpg_1.png'
p1895
sg87
S'/home/jeff/digital_media_class/dig_med/Proj1_intro_vid/pics/usmc/oki.jpg'
p1896
sg89
Nsg90
g595
sg92
I0
sg52
I987
sg93
g1
sg47
I1176
sg94
F300
sg95
F29.970029970029969
sg96
I1
sg97
S''
sg98
(F29.970029970029969
I0
tp1897
sg100
S''
sg50
S'f2baa0c7-e6c4-11e6-8784-e8b1fc98bbfb'
p1898
sbag1054
ag1033
ag1117
ag1138
ag1159
ag1369
ag1390
ag1432
ag1453
ag1474
a(iclasses.files
OpenShotFile
p1899
(dp1900
g81
F14999
sg82
S''
sg84
I0
sg85
S'/home/jeff/digital_media_class/dig_med/Proj1_intro_vid/thumbnail/0f52f86a-e6c9-11e6-8784-e8b1fc98bbfb_jpg_1.png'
p1901
sg87
S'/home/jeff/digital_media_class/dig_med/Proj1_intro_vid/pics/passions/FB_IMG_1471198050780.jpg'
p1902
sg89
Nsg90
g595
sg92
I0
sg52
I720
sg93
g1
sg47
I960
sg94
F300
sg95
F29.970029970029969
sg96
I1
sg97
S''
sg98
(F29.970029970029969
I0
tp1903
sg100
S''
sg50
S'0f52f86b-e6c9-11e6-8784-e8b1fc98bbfb'
p1904
sbag1495
ag1516
ag1537
ag1558
ag1579
a(iclasses.files
OpenShotFile
p1905
(dp1906
g81
F14999
sg82
S''
sg84
I0
sg85
S'/home/jeff/digital_media_class/dig_med/Proj1_intro_vid/thumbnail/0f52f876-e6c9-11e6-8784-e8b1fc98bbfb_jpg_1.png'
p1907
sg87
S'/home/jeff/digital_media_class/dig_med/Proj1_intro_vid/pics/passions/FB_IMG_1471198022276.jpg'
p1908
sg89
Nsg90
g595
sg92
I0
sg52
I720
sg93
g1
sg47
I721
sg94
F300
sg95
F29.970029970029969
sg96
I1
sg97
S''
sg98
(F29.970029970029969
I0
tp1909
sg100
S''
sg50
S'0f52f877-e6c9-11e6-8784-e8b1fc98bbfb'
p1910
sbag1306
ag1327
ag1348
ag1285
ag1180
ag1264
ag1201
a(iclasses.files
OpenShotFile
p1911
(dp1912
g81
F14999
sg82
S''
sg84
I0
sg85
S'/home/jeff/digital_media_class/dig_med/Proj1_intro_vid/thumbnail/0f52f886-e6c9-11e6-8784-e8b1fc98bbfb_jpg_1.png'
p1913
sg87
S'/home/jeff/digital_media_class/dig_med/Proj1_intro_vid/pics/passions/MGR_9578.jpg'
p1914
sg89
Nsg90
g595
sg92
I0
sg52
I4288
sg93
g1
sg47
I2848
sg94
F300
sg95
F29.970029970029969
sg96
I1
sg97
S''
sg98
(F29.970029970029969
I0
tp1915
sg100
S''
sg50
S'0f52f887-e6c9-11e6-8784-e8b1fc98bbfb'
p1916
sbag1222
ag1243
ag1642
ag1663
ag1600
ag1621
ag1705
ag1726
ag1747
ag1768
ag1789
a(iclasses.files
OpenShotFile
p1917
(dp1918
g81
F14999
sg82
S''
sg84
I0
sg85
S'/home/jeff/digital_media_class/dig_med/Proj1_intro_vid/thumbnail/13358d8c-e6c9-11e6-8784-e8b1fc98bbfb_jpg_1.png'
p1919
sg87
S'/home/jeff/digital_media_class/dig_med/Proj1_intro_vid/pics/passions/MGR_9570.jpg'
p1920
sg89
Nsg90
g595
sg92
I0
sg52
I4288
sg93
g1
sg47
I2848
sg94
F300
sg95
F29.970029970029969
sg96
I1
sg97
S''
sg98
(F29.970029970029969
I0
tp1921
sg100
S''
sg50
S'13358d8d-e6c9-11e6-8784-e8b1fc98bbfb'
p1922
sbag1411
asS'label'
p1923
S''
sg1826
g1
sS'location'
p1924
S''
sg114
S'f50a98fe-e6bc-11e6-8784-e8b1fc98bbfb'
p1925
sbsS'form'
p1926
NsS'thumbnailer'
p1927
NsS'folder'
p1928
S'/home/jeff/digital_media_class/dig_med/Proj1_intro_vid'
p1929
sS'USER_PROFILES_DIR'
p1930
S'/home/jeff/.openshot/user_profiles'
p1931
sb.